Archive member included to satisfy reference by file (symbol)

obj_cooja/mtype595.a(rimeaddr.o)
                              obj_cooja/mtype595.o (rimeaddr_node_addr)
obj_cooja/mtype595.a(nullrdc.o)
                              obj_cooja/mtype595.o (nullrdc_driver)
obj_cooja/mtype595.a(mac.o)   obj_cooja/mtype595.a(nullrdc.o) (mac_call_sent_callback)
obj_cooja/mtype595.a(framer-802154.o)
                              obj_cooja/mtype595.a(nullrdc.o) (framer_802154)
obj_cooja/mtype595.a(csma.o)  obj_cooja/mtype595.o (csma_driver)
obj_cooja/mtype595.a(rpl-dag.o)
                              udp-sender.co (rpl_get_dag)
obj_cooja/mtype595.a(rpl-icmp6.o)
                              obj_cooja/mtype595.a(rpl-dag.o) (dao_output)
obj_cooja/mtype595.a(rpl-timers.o)
                              obj_cooja/mtype595.a(rpl-dag.o) (rpl_reset_dio_timer)
obj_cooja/mtype595.a(rpl-of-fuzzy.o)
                              obj_cooja/mtype595.a(rpl-dag.o) (rpl_of_fuzzy)
obj_cooja/mtype595.a(fuzzify.o)
                              obj_cooja/mtype595.a(rpl-of-fuzzy.o) (consumption)
obj_cooja/mtype595.a(qos.o)   obj_cooja/mtype595.a(rpl-of-fuzzy.o) (qos)
obj_cooja/mtype595.a(quality.o)
                              obj_cooja/mtype595.a(rpl-of-fuzzy.o) (quality)
obj_cooja/mtype595.a(process.o)
                              udp-sender.co (process_current)
obj_cooja/mtype595.a(autostart.o)
                              obj_cooja/mtype595.o (autostart_start)
obj_cooja/mtype595.a(serial-line.o)
                              obj_cooja/collect-common.o (serial_line_event_message)
obj_cooja/mtype595.a(memb.o)  obj_cooja/mtype595.a(csma.o) (memb_init)
obj_cooja/mtype595.a(list.o)  obj_cooja/mtype595.a(rpl-dag.o) (list_init)
obj_cooja/mtype595.a(etimer.o)
                              obj_cooja/mtype595.o (etimer_process)
obj_cooja/mtype595.a(ctimer.o)
                              obj_cooja/mtype595.o (ctimer_init)
obj_cooja/mtype595.a(energest.o)
                              udp-sender.co (energest_init)
obj_cooja/mtype595.a(stimer.o)
                              obj_cooja/mtype595.a(rpl-icmp6.o) (stimer_set)
obj_cooja/mtype595.a(random.o)
                              obj_cooja/collect-common.o (random_rand)
obj_cooja/mtype595.a(ringbuf.o)
                              obj_cooja/mtype595.a(serial-line.o) (ringbuf_init)
obj_cooja/mtype595.a(netstack.o)
                              obj_cooja/mtype595.o (netstack_init)
obj_cooja/mtype595.a(uip-debug.o)
                              udp-sender.co (uip_debug_ipaddr_print)
obj_cooja/mtype595.a(packetbuf.o)
                              obj_cooja/mtype595.a(nullrdc.o) (packetbuf_attrs)
obj_cooja/mtype595.a(queuebuf.o)
                              obj_cooja/mtype595.o (queuebuf_init)
obj_cooja/mtype595.a(uip6.o)  udp-sender.co (uip_lladdr)
obj_cooja/mtype595.a(tcpip.o)
                              udp-sender.co (tcpip_event)
obj_cooja/mtype595.a(uip-udp-packet.)
                              udp-sender.co (uip_udp_packet_sendto)
obj_cooja/mtype595.a(uip-icmp6.o)
                              obj_cooja/mtype595.a(uip6.o) (uip_icmp6_echo_request_input)
obj_cooja/mtype595.a(uip-nd6.o)
                              obj_cooja/mtype595.a(uip6.o) (uip_nd6_ns_input)
obj_cooja/mtype595.a(uip-packetqueue)
                              obj_cooja/mtype595.a(tcpip.o) (uip_packetqueue_alloc)
obj_cooja/mtype595.a(sicslowpan.o)
                              obj_cooja/mtype595.o (sicslowpan_driver)
obj_cooja/mtype595.a(neighbor-info.o)
                              obj_cooja/mtype595.a(sicslowpan.o) (neighbor_info_packet_sent)
obj_cooja/mtype595.a(uip-ds6.o)
                              obj_cooja/mtype595.a(tcpip.o) (uip_ds6_timer_periodic)
obj_cooja/mtype595.a(collect-view.o)
                              udp-sender.co (collect_view_construct_message)
obj_cooja/mtype595.a(collect-view-te)
                              obj_cooja/mtype595.a(collect-view.o) (collect_view_arch_read_sensors)
obj_cooja/mtype595.a(simEnvChange.o)
                              obj_cooja/mtype595.o (simDontFallAsleep)
obj_cooja/mtype595.a(cooja_mt.o)
                              obj_cooja/mtype595.o (cooja_mt_start)
obj_cooja/mtype595.a(cooja_mtarch.o)
                              obj_cooja/mtype595.a(cooja_mt.o) (cooja_mtarch_init)
obj_cooja/mtype595.a(rtimer-arch.o)
                              obj_cooja/mtype595.o (rtimer_arch_next)
obj_cooja/mtype595.a(watchdog.o)
                              obj_cooja/mtype595.a(nullrdc.o) (watchdog_periodic)
obj_cooja/mtype595.a(beep.o)  obj_cooja/mtype595.o (beep_interface)
obj_cooja/mtype595.a(button-sensor.o)
                              obj_cooja/mtype595.o (button_interface)
obj_cooja/mtype595.a(leds-arch.o)
                              obj_cooja/mtype595.o (leds_interface)
obj_cooja/mtype595.a(moteid.o)
                              obj_cooja/mtype595.o (moteid_interface)
obj_cooja/mtype595.a(pir-sensor.o)
                              obj_cooja/mtype595.o (pir_interface)
obj_cooja/mtype595.a(rs232.o)
                              obj_cooja/mtype595.o (rs232_interface)
obj_cooja/mtype595.a(vib-sensor.o)
                              obj_cooja/mtype595.o (vib_interface)
obj_cooja/mtype595.a(clock.o)
                              obj_cooja/mtype595.o (clock_interface)
obj_cooja/mtype595.a(log.o)   obj_cooja/mtype595.o (simlog_interface)
obj_cooja/mtype595.a(cfs-cooja.o)
                              obj_cooja/mtype595.o (cfs_interface)
obj_cooja/mtype595.a(cooja-radio.o)
                              obj_cooja/mtype595.o (radio_interface)
obj_cooja/mtype595.a(sensors.o)
                              obj_cooja/mtype595.o (sensors_process)
obj_cooja/mtype595.a(leds.o)  obj_cooja/collect-common.o (leds_blink)
obj_cooja/mtype595.a(rimestats.o)
                              obj_cooja/mtype595.a(cooja-radio.o) (rimestats)
obj_cooja/mtype595.a(frame802154.o)
                              obj_cooja/mtype595.a(framer-802154.o) (frame802154_hdrlen)
obj_cooja/mtype595.a(rpl.o)   obj_cooja/mtype595.a(rpl-timers.o) (rpl_purge_routes)
obj_cooja/mtype595.a(timer.o)
                              obj_cooja/mtype595.a(etimer.o) (timer_set)
obj_cooja/mtype595.a(rtimer.o)
                              obj_cooja/mtype595.a(rtimer-arch.o) (rtimer_run_next)
obj_cooja/mtype595.a(neighbor-attr.o)
                              obj_cooja/mtype595.a(neighbor-info.o) (neighbor_attr_register)

As-needed library included to satisfy reference by file (symbol)

libc.so.6                     obj_cooja/mtype595.a(random.o) (srand@@GLIBC_2.2.5)

Allocating common symbols
Common symbol       size              file

simButtonIsActive   0x1               obj_cooja/mtype595.a(button-sensor.o)
simButtonIsDown     0x1               obj_cooja/mtype595.a(button-sensor.o)
simOutDataBuffer    0x80              obj_cooja/mtype595.a(cooja-radio.o)
uip_ds6_prefix_list
                    0x60              obj_cooja/mtype595.a(uip-ds6.o)
simSerialReceivingFlag
                    0x1               obj_cooja/mtype595.a(rs232.o)
uip_ds6_defrt_list  0x60              obj_cooja/mtype595.a(uip-ds6.o)
simLoggedLength     0x4               obj_cooja/mtype595.a(log.o)
simSerialReceivingLength
                    0x4               obj_cooja/mtype595.a(rs232.o)
simEtimerPending    0x4               obj_cooja/mtype595.a(simEnvChange.o)
uip_slen            0x2               obj_cooja/mtype595.a(uip6.o)
uip_ds6_timer_periodic
                    0x20              obj_cooja/mtype595.a(uip-ds6.o)
uip_acc32           0x4               obj_cooja/mtype595.a(uip6.o)
uip_conns           0xe0              obj_cooja/mtype595.a(uip6.o)
simVibChanged       0x1               obj_cooja/mtype595.a(vib-sensor.o)
sicslowpan_mac      0x8               obj_cooja/mtype595.a(sicslowpan.o)
rimestats           0x90              obj_cooja/mtype595.a(rimestats.o)
uip_lladdr          0x8               obj_cooja/mtype595.a(uip6.o)
simProcessRunValue  0x4               obj_cooja/mtype595.a(simEnvChange.o)
serial_line_event_message
                    0x1               obj_cooja/mtype595.a(serial-line.o)
uip_appdata         0x8               obj_cooja/mtype595.a(uip6.o)
referenceVar        0x8               obj_cooja/mtype595.o
simCurrentTime      0x8               obj_cooja/mtype595.a(clock.o)
simVibIsActive      0x1               obj_cooja/mtype595.a(vib-sensor.o)
simNextExpirationTime
                    0x8               obj_cooja/mtype595.a(simEnvChange.o)
uip_ds6_if          0x158             obj_cooja/mtype595.a(uip-ds6.o)
uip_flags           0x1               obj_cooja/mtype595.a(uip6.o)
uip_ds6_timer_ra    0x10              obj_cooja/mtype595.a(uip-ds6.o)
simSerialReceivingData
                    0x400             obj_cooja/mtype595.a(rs232.o)
simLoggedFlag       0x1               obj_cooja/mtype595.a(log.o)
packetbuf_attrs     0x30              obj_cooja/mtype595.a(packetbuf.o)
uip_ds6_routing_table
                    0x100             obj_cooja/mtype595.a(uip-ds6.o)
uip_aligned_buf     0xf0              obj_cooja/mtype595.a(uip6.o)
simRandomSeed       0x4               obj_cooja/mtype595.a(moteid.o)
list_metric         0x8               obj_cooja/mtype595.a(rpl-of-fuzzy.o)
simLoggedData       0x400             obj_cooja/mtype595.a(log.o)
simLedsValue        0x1               obj_cooja/mtype595.a(leds-arch.o)
uip_listenports     0x10              obj_cooja/mtype595.a(uip6.o)
uip_len             0x2               obj_cooja/mtype595.a(uip6.o)
uip_ds6_nbr_cache   0x160             obj_cooja/mtype595.a(uip-ds6.o)
simButtonChanged    0x1               obj_cooja/mtype595.a(button-sensor.o)
simPirIsActive      0x1               obj_cooja/mtype595.a(pir-sensor.o)
simInDataBuffer     0x80              obj_cooja/mtype595.a(cooja-radio.o)
simPirChanged       0x1               obj_cooja/mtype595.a(pir-sensor.o)
simBeeped           0x1               obj_cooja/mtype595.a(beep.o)
tcpip_event         0x1               obj_cooja/mtype595.a(tcpip.o)
uip_sappdata        0x8               obj_cooja/mtype595.a(uip6.o)
sensors_event       0x1               obj_cooja/mtype595.a(sensors.o)
uip_udp_conns       0x1e0             obj_cooja/mtype595.a(uip6.o)
rimeaddr_node_addr  0x8               obj_cooja/mtype595.a(rimeaddr.o)
frag_sender         0x8               obj_cooja/mtype595.a(sicslowpan.o)
packetbuf_addrs     0x20              obj_cooja/mtype595.a(packetbuf.o)
uip_udp_conn        0x8               obj_cooja/mtype595.a(uip6.o)
simMoteIDChanged    0x1               obj_cooja/mtype595.a(moteid.o)
sensors_flags       0x4               obj_cooja/mtype595.o
uip_next_hdr        0x8               obj_cooja/mtype595.a(uip6.o)
simMoteID           0x4               obj_cooja/mtype595.a(moteid.o)
uip_conn            0x8               obj_cooja/mtype595.a(uip6.o)

Discarded input sections

 .note.GNU-stack
                0x0000000000000000        0x0 /usr/lib/gcc/x86_64-linux-gnu/5/../../../x86_64-linux-gnu/crti.o
 .note.GNU-stack
                0x0000000000000000        0x0 /usr/lib/gcc/x86_64-linux-gnu/5/crtbeginS.o
 .note.GNU-stack
                0x0000000000000000        0x0 udp-sender.co
 .note.GNU-stack
                0x0000000000000000        0x0 obj_cooja/mtype595.o
 .note.GNU-stack
                0x0000000000000000        0x0 obj_cooja/collect-common.o
 .note.GNU-stack
                0x0000000000000000        0x0 obj_cooja/mtype595.a(rimeaddr.o)
 .note.GNU-stack
                0x0000000000000000        0x0 obj_cooja/mtype595.a(nullrdc.o)
 .note.GNU-stack
                0x0000000000000000        0x0 obj_cooja/mtype595.a(mac.o)
 .note.GNU-stack
                0x0000000000000000        0x0 obj_cooja/mtype595.a(framer-802154.o)
 .note.GNU-stack
                0x0000000000000000        0x0 obj_cooja/mtype595.a(csma.o)
 .note.GNU-stack
                0x0000000000000000        0x0 obj_cooja/mtype595.a(rpl-dag.o)
 .note.GNU-stack
                0x0000000000000000        0x0 obj_cooja/mtype595.a(rpl-icmp6.o)
 .note.GNU-stack
                0x0000000000000000        0x0 obj_cooja/mtype595.a(rpl-timers.o)
 .note.GNU-stack
                0x0000000000000000        0x0 obj_cooja/mtype595.a(rpl-of-fuzzy.o)
 .note.GNU-stack
                0x0000000000000000        0x0 obj_cooja/mtype595.a(fuzzify.o)
 .note.GNU-stack
                0x0000000000000000        0x0 obj_cooja/mtype595.a(qos.o)
 .note.GNU-stack
                0x0000000000000000        0x0 obj_cooja/mtype595.a(quality.o)
 .note.GNU-stack
                0x0000000000000000        0x0 obj_cooja/mtype595.a(process.o)
 .note.GNU-stack
                0x0000000000000000        0x0 obj_cooja/mtype595.a(autostart.o)
 .note.GNU-stack
                0x0000000000000000        0x0 obj_cooja/mtype595.a(serial-line.o)
 .note.GNU-stack
                0x0000000000000000        0x0 obj_cooja/mtype595.a(memb.o)
 .note.GNU-stack
                0x0000000000000000        0x0 obj_cooja/mtype595.a(list.o)
 .note.GNU-stack
                0x0000000000000000        0x0 obj_cooja/mtype595.a(etimer.o)
 .note.GNU-stack
                0x0000000000000000        0x0 obj_cooja/mtype595.a(ctimer.o)
 .note.GNU-stack
                0x0000000000000000        0x0 obj_cooja/mtype595.a(energest.o)
 .note.GNU-stack
                0x0000000000000000        0x0 obj_cooja/mtype595.a(stimer.o)
 .note.GNU-stack
                0x0000000000000000        0x0 obj_cooja/mtype595.a(random.o)
 .note.GNU-stack
                0x0000000000000000        0x0 obj_cooja/mtype595.a(ringbuf.o)
 .note.GNU-stack
                0x0000000000000000        0x0 obj_cooja/mtype595.a(netstack.o)
 .note.GNU-stack
                0x0000000000000000        0x0 obj_cooja/mtype595.a(uip-debug.o)
 .note.GNU-stack
                0x0000000000000000        0x0 obj_cooja/mtype595.a(packetbuf.o)
 .note.GNU-stack
                0x0000000000000000        0x0 obj_cooja/mtype595.a(queuebuf.o)
 .note.GNU-stack
                0x0000000000000000        0x0 obj_cooja/mtype595.a(uip6.o)
 .note.GNU-stack
                0x0000000000000000        0x0 obj_cooja/mtype595.a(tcpip.o)
 .note.GNU-stack
                0x0000000000000000        0x0 obj_cooja/mtype595.a(uip-udp-packet.)
 .note.GNU-stack
                0x0000000000000000        0x0 obj_cooja/mtype595.a(uip-icmp6.o)
 .note.GNU-stack
                0x0000000000000000        0x0 obj_cooja/mtype595.a(uip-nd6.o)
 .note.GNU-stack
                0x0000000000000000        0x0 obj_cooja/mtype595.a(uip-packetqueue)
 .note.GNU-stack
                0x0000000000000000        0x0 obj_cooja/mtype595.a(sicslowpan.o)
 .note.GNU-stack
                0x0000000000000000        0x0 obj_cooja/mtype595.a(neighbor-info.o)
 .note.GNU-stack
                0x0000000000000000        0x0 obj_cooja/mtype595.a(uip-ds6.o)
 .note.GNU-stack
                0x0000000000000000        0x0 obj_cooja/mtype595.a(collect-view.o)
 .note.GNU-stack
                0x0000000000000000        0x0 obj_cooja/mtype595.a(collect-view-te)
 .note.GNU-stack
                0x0000000000000000        0x0 obj_cooja/mtype595.a(simEnvChange.o)
 .note.GNU-stack
                0x0000000000000000        0x0 obj_cooja/mtype595.a(cooja_mt.o)
 .note.GNU-stack
                0x0000000000000000        0x0 obj_cooja/mtype595.a(cooja_mtarch.o)
 .note.GNU-stack
                0x0000000000000000        0x0 obj_cooja/mtype595.a(rtimer-arch.o)
 .note.GNU-stack
                0x0000000000000000        0x0 obj_cooja/mtype595.a(watchdog.o)
 .note.GNU-stack
                0x0000000000000000        0x0 obj_cooja/mtype595.a(beep.o)
 .note.GNU-stack
                0x0000000000000000        0x0 obj_cooja/mtype595.a(button-sensor.o)
 .note.GNU-stack
                0x0000000000000000        0x0 obj_cooja/mtype595.a(leds-arch.o)
 .note.GNU-stack
                0x0000000000000000        0x0 obj_cooja/mtype595.a(moteid.o)
 .note.GNU-stack
                0x0000000000000000        0x0 obj_cooja/mtype595.a(pir-sensor.o)
 .note.GNU-stack
                0x0000000000000000        0x0 obj_cooja/mtype595.a(rs232.o)
 .note.GNU-stack
                0x0000000000000000        0x0 obj_cooja/mtype595.a(vib-sensor.o)
 .note.GNU-stack
                0x0000000000000000        0x0 obj_cooja/mtype595.a(clock.o)
 .note.GNU-stack
                0x0000000000000000        0x0 obj_cooja/mtype595.a(log.o)
 .note.GNU-stack
                0x0000000000000000        0x0 obj_cooja/mtype595.a(cfs-cooja.o)
 .note.GNU-stack
                0x0000000000000000        0x0 obj_cooja/mtype595.a(cooja-radio.o)
 .note.GNU-stack
                0x0000000000000000        0x0 obj_cooja/mtype595.a(sensors.o)
 .note.GNU-stack
                0x0000000000000000        0x0 obj_cooja/mtype595.a(leds.o)
 .note.GNU-stack
                0x0000000000000000        0x0 obj_cooja/mtype595.a(rimestats.o)
 .note.GNU-stack
                0x0000000000000000        0x0 obj_cooja/mtype595.a(frame802154.o)
 .note.GNU-stack
                0x0000000000000000        0x0 obj_cooja/mtype595.a(rpl.o)
 .note.GNU-stack
                0x0000000000000000        0x0 obj_cooja/mtype595.a(timer.o)
 .note.GNU-stack
                0x0000000000000000        0x0 obj_cooja/mtype595.a(rtimer.o)
 .note.GNU-stack
                0x0000000000000000        0x0 obj_cooja/mtype595.a(neighbor-attr.o)
 .note.GNU-stack
                0x0000000000000000        0x0 /usr/lib/gcc/x86_64-linux-gnu/5/crtendS.o
 .note.GNU-stack
                0x0000000000000000        0x0 /usr/lib/gcc/x86_64-linux-gnu/5/../../../x86_64-linux-gnu/crtn.o

Memory Configuration

Name             Origin             Length             Attributes
*default*        0x0000000000000000 0xffffffffffffffff

Linker script and memory map

LOAD /usr/lib/gcc/x86_64-linux-gnu/5/../../../x86_64-linux-gnu/crti.o
LOAD /usr/lib/gcc/x86_64-linux-gnu/5/crtbeginS.o
LOAD udp-sender.co
LOAD obj_cooja/mtype595.o
LOAD obj_cooja/collect-common.o
LOAD obj_cooja/mtype595.a
LOAD /usr/lib/gcc/x86_64-linux-gnu/5/libgcc.a
LOAD /usr/lib/gcc/x86_64-linux-gnu/5/libgcc_s.so
LOAD /usr/lib/gcc/x86_64-linux-gnu/5/../../../x86_64-linux-gnu/libc.so
START GROUP
LOAD /lib/x86_64-linux-gnu/libc.so.6
LOAD /usr/lib/x86_64-linux-gnu/libc_nonshared.a
LOAD /lib/x86_64-linux-gnu/ld-linux-x86-64.so.2
END GROUP
LOAD /usr/lib/gcc/x86_64-linux-gnu/5/libgcc.a
LOAD /usr/lib/gcc/x86_64-linux-gnu/5/libgcc_s.so
LOAD /usr/lib/gcc/x86_64-linux-gnu/5/crtendS.o
LOAD /usr/lib/gcc/x86_64-linux-gnu/5/../../../x86_64-linux-gnu/crtn.o
                0x00000000000001c8                . = (SEGMENT_START ("text-segment", 0x0) + SIZEOF_HEADERS)

.note.gnu.build-id
                0x00000000000001c8       0x24
 *(.note.gnu.build-id)
 .note.gnu.build-id
                0x00000000000001c8       0x24 /usr/lib/gcc/x86_64-linux-gnu/5/../../../x86_64-linux-gnu/crti.o

.hash
 *(.hash)

.gnu.hash       0x00000000000001f0      0xd74
 *(.gnu.hash)
 .gnu.hash      0x00000000000001f0      0xd74 /usr/lib/gcc/x86_64-linux-gnu/5/../../../x86_64-linux-gnu/crti.o

.dynsym         0x0000000000000f68     0x2d48
 *(.dynsym)
 .dynsym        0x0000000000000f68     0x2d48 /usr/lib/gcc/x86_64-linux-gnu/5/../../../x86_64-linux-gnu/crti.o

.dynstr         0x0000000000003cb0     0x1dd2
 *(.dynstr)
 .dynstr        0x0000000000003cb0     0x1dd2 /usr/lib/gcc/x86_64-linux-gnu/5/../../../x86_64-linux-gnu/crti.o

.gnu.version    0x0000000000005a82      0x3c6
 *(.gnu.version)
 .gnu.version   0x0000000000005a82      0x3c6 /usr/lib/gcc/x86_64-linux-gnu/5/../../../x86_64-linux-gnu/crti.o

.gnu.version_d  0x0000000000005e48        0x0
 *(.gnu.version_d)
 .gnu.version_d
                0x0000000000005e48        0x0 /usr/lib/gcc/x86_64-linux-gnu/5/../../../x86_64-linux-gnu/crti.o

.gnu.version_r  0x0000000000005e48       0x50
 *(.gnu.version_r)
 .gnu.version_r
                0x0000000000005e48       0x50 /usr/lib/gcc/x86_64-linux-gnu/5/../../../x86_64-linux-gnu/crti.o

.rela.dyn       0x0000000000005e98     0x15f0
 *(.rela.init)
 *(.rela.text .rela.text.* .rela.gnu.linkonce.t.*)
 .rela.text     0x0000000000005e98        0x0 /usr/lib/gcc/x86_64-linux-gnu/5/../../../x86_64-linux-gnu/crti.o
 *(.rela.fini)
 *(.rela.rodata .rela.rodata.* .rela.gnu.linkonce.r.*)
 *(.rela.data .rela.data.* .rela.gnu.linkonce.d.*)
 .rela.data.rel.local
                0x0000000000005e98      0x468 /usr/lib/gcc/x86_64-linux-gnu/5/../../../x86_64-linux-gnu/crti.o
 .rela.data.rel.ro
                0x0000000000006300       0x90 /usr/lib/gcc/x86_64-linux-gnu/5/../../../x86_64-linux-gnu/crti.o
 .rela.data.rel
                0x0000000000006390      0x150 /usr/lib/gcc/x86_64-linux-gnu/5/../../../x86_64-linux-gnu/crti.o
 .rela.data.rel.ro.local
                0x00000000000064e0      0x5a0 /usr/lib/gcc/x86_64-linux-gnu/5/../../../x86_64-linux-gnu/crti.o
 *(.rela.tdata .rela.tdata.* .rela.gnu.linkonce.td.*)
 *(.rela.tbss .rela.tbss.* .rela.gnu.linkonce.tb.*)
 *(.rela.ctors)
 *(.rela.dtors)
 *(.rela.got)
 .rela.got      0x0000000000006a80      0x9d8 /usr/lib/gcc/x86_64-linux-gnu/5/../../../x86_64-linux-gnu/crti.o
 *(.rela.bss .rela.bss.* .rela.gnu.linkonce.b.*)
 *(.rela.ldata .rela.ldata.* .rela.gnu.linkonce.l.*)
 *(.rela.lbss .rela.lbss.* .rela.gnu.linkonce.lb.*)
 *(.rela.lrodata .rela.lrodata.* .rela.gnu.linkonce.lr.*)
 *(.rela.ifunc)
 .rela.ifunc    0x0000000000007458        0x0 /usr/lib/gcc/x86_64-linux-gnu/5/../../../x86_64-linux-gnu/crti.o
 .rela.fini_array
                0x0000000000007458       0x18 /usr/lib/gcc/x86_64-linux-gnu/5/../../../x86_64-linux-gnu/crti.o
 .rela.init_array
                0x0000000000007470       0x18 /usr/lib/gcc/x86_64-linux-gnu/5/../../../x86_64-linux-gnu/crti.o

.rela.plt       0x0000000000007488     0x1758
 *(.rela.plt)
 .rela.plt      0x0000000000007488     0x1758 /usr/lib/gcc/x86_64-linux-gnu/5/../../../x86_64-linux-gnu/crti.o
 *(.rela.iplt)

.init           0x0000000000008be0       0x17
 *(SORT_NONE(.init))
 .init          0x0000000000008be0       0x12 /usr/lib/gcc/x86_64-linux-gnu/5/../../../x86_64-linux-gnu/crti.o
                0x0000000000008be0                _init
 .init          0x0000000000008bf2        0x5 /usr/lib/gcc/x86_64-linux-gnu/5/../../../x86_64-linux-gnu/crtn.o

.plt            0x0000000000008c00      0xfa0
 *(.plt)
 .plt           0x0000000000008c00      0xfa0 /usr/lib/gcc/x86_64-linux-gnu/5/../../../x86_64-linux-gnu/crti.o
 *(.iplt)

.plt.got        0x0000000000009ba0        0x8
 *(.plt.got)
 .plt.got       0x0000000000009ba0        0x8 /usr/lib/gcc/x86_64-linux-gnu/5/../../../x86_64-linux-gnu/crti.o

.plt.sec
 *(.plt.sec)

.text           0x0000000000009bb0    0x1757e
 *(.text.unlikely .text.*_unlikely .text.unlikely.*)
 .text.unlikely
                0x0000000000009bb0        0x0 /usr/lib/gcc/x86_64-linux-gnu/5/crtbeginS.o
 *(.text.exit .text.exit.*)
 *(.text.startup .text.startup.*)
 *(.text.hot .text.hot.*)
 *(.text .stub .text.* .gnu.linkonce.t.*)
 .text          0x0000000000009bb0        0x0 /usr/lib/gcc/x86_64-linux-gnu/5/../../../x86_64-linux-gnu/crti.o
 .text          0x0000000000009bb0      0x100 /usr/lib/gcc/x86_64-linux-gnu/5/crtbeginS.o
 .text          0x0000000000009cb0      0x60c udp-sender.co
                0x0000000000009cb0                collect_common_set_sink
                0x0000000000009cb7                collect_common_net_print
                0x0000000000009da3                collect_common_send
                0x0000000000009f7e                collect_common_net_init
 .text          0x000000000000a2bc      0x870 obj_cooja/mtype595.o
                0x000000000000a42a                contiki_init
                0x000000000000a89f                Java_se_sics_cooja_corecomm_Lib2_init
                0x000000000000a8e2                Java_se_sics_cooja_corecomm_Lib2_getMemory
                0x000000000000a93a                Java_se_sics_cooja_corecomm_Lib2_setMemory
                0x000000000000a9c7                Java_se_sics_cooja_corecomm_Lib2_tick
                0x000000000000aafe                Java_se_sics_cooja_corecomm_Lib2_setReferenceAddress
 .text          0x000000000000ab2c      0x4ca obj_cooja/collect-common.o
                0x000000000000abd5                collect_common_set_send_active
                0x000000000000abe8                collect_common_recv
 .text          0x000000000000aff6       0x74 obj_cooja/mtype595.a(rimeaddr.o)
                0x000000000000aff6                rimeaddr_copy
                0x000000000000b013                rimeaddr_cmp
                0x000000000000b045                rimeaddr_set_node_addr
 .text          0x000000000000b06a      0x524 obj_cooja/mtype595.a(nullrdc.o)
 .text          0x000000000000b58e       0x48 obj_cooja/mtype595.a(mac.o)
                0x000000000000b58e                mac_call_sent_callback
 .text          0x000000000000b5d6      0x40b obj_cooja/mtype595.a(framer-802154.o)
 .text          0x000000000000b9e1      0x561 obj_cooja/mtype595.a(csma.o)
 .text          0x000000000000bf42     0x14de obj_cooja/mtype595.a(rpl-dag.o)
                0x000000000000c12e                rpl_set_root
                0x000000000000c26e                rpl_set_prefix
                0x000000000000c2fc                rpl_set_default_route
                0x000000000000c37f                rpl_alloc_dag
                0x000000000000c465                rpl_free_dag
                0x000000000000c4d4                rpl_add_parent
                0x000000000000c620                rpl_find_parent
                0x000000000000c688                rpl_select_parent
                0x000000000000c8b4                rpl_remove_parent
                0x000000000000c9cf                rpl_get_dag
                0x000000000000ca48                rpl_find_of
                0x000000000000cea3                rpl_repair_dag
                0x000000000000cefd                rpl_local_repair
                0x000000000000cf38                rpl_recalculate_ranks
                0x000000000000cfb3                rpl_process_parent_event
                0x000000000000d0b1                rpl_process_dio
 .text          0x000000000000d420     0x1d4b obj_cooja/mtype595.a(rpl-icmp6.o)
                0x000000000000d70a                dis_output
                0x000000000000e137                dio_output_set_next
                0x000000000000e162                dio_output
                0x000000000000ecf8                dao_output
                0x000000000000f027                dao_ack_output
                0x000000000000f0ac                uip_rpl_input
                0x000000000000f119                clear_dio_mc
 .text          0x000000000000f16b      0x7f3 obj_cooja/mtype595.a(rpl-timers.o)
                0x000000000000f1d0                new_interval
                0x000000000000f499                rpl_reset_periodic_timer
                0x000000000000f4c6                rpl_reset_dio_timer
                0x000000000000f5b8                rpl_schedule_dao
                0x000000000000f64a                rpl_schedule_next_dio_reception
                0x000000000000f6cf                send_dis
                0x000000000000f749                handle_next_dio
                0x000000000000f7c4                rpl_dio_received
 .text          0x000000000000f95e      0x900 obj_cooja/mtype595.a(rpl-of-fuzzy.o)
 .text          0x000000000001025e      0x6e9 obj_cooja/mtype595.a(fuzzify.o)
                0x000000000001025e                DOWN
                0x00000000000102b5                UP
                0x00000000000102e8                FIRST_T_NORM
                0x0000000000010347                LAST_T_NORM
                0x00000000000103a6                T_NORM
                0x0000000000010454                COG_1
                0x00000000000104ca                compose
                0x0000000000010686                consumption
                0x0000000000010771                reliability
                0x000000000001085c                duration
 .text          0x0000000000010947      0x838 obj_cooja/mtype595.a(qos.o)
                0x0000000000010947                qos
 .text          0x000000000001117f      0xc7a obj_cooja/mtype595.a(quality.o)
                0x000000000001117f                quality
 .text          0x0000000000011df9      0x68e obj_cooja/mtype595.a(process.o)
                0x0000000000011df9                process_alloc_event
                0x0000000000011e0f                process_start
                0x0000000000012074                process_exit
                0x000000000001209c                process_init
                0x00000000000122c4                process_run
                0x00000000000122f5                process_nevents
                0x0000000000012311                process_post
                0x00000000000123ea                process_post_synch
                0x0000000000012434                process_poll
                0x000000000001246d                process_is_running
 .text          0x0000000000012487       0xb3 obj_cooja/mtype595.a(autostart.o)
                0x0000000000012487                autostart_start
                0x00000000000124e3                autostart_exit
 .text          0x000000000001253a      0x20c obj_cooja/mtype595.a(serial-line.o)
                0x000000000001253a                serial_line_input_byte
                0x0000000000012713                serial_line_init
 .text          0x0000000000012746      0x1c2 obj_cooja/mtype595.a(memb.o)
                0x0000000000012746                memb_init
                0x00000000000127a5                memb_alloc
                0x000000000001281d                memb_free
                0x00000000000128b5                memb_inmemb
 .text          0x0000000000012908      0x311 obj_cooja/mtype595.a(list.o)
                0x0000000000012908                list_init
                0x000000000001291e                list_head
                0x000000000001292f                list_copy
                0x000000000001294c                list_tail
                0x0000000000012991                list_add
                0x00000000000129f1                list_push
                0x0000000000012a30                list_chop
                0x0000000000012ab9                list_pop
                0x0000000000012aef                list_remove
                0x0000000000012b77                list_length
                0x0000000000012bae                list_insert
                0x0000000000012bfa                list_item_next
 .text          0x0000000000012c19      0x509 obj_cooja/mtype595.a(etimer.o)
                0x0000000000012eb9                etimer_request_poll
                0x0000000000012f63                etimer_set
                0x0000000000012f95                etimer_reset
                0x0000000000012fbc                etimer_restart
                0x0000000000012fe3                etimer_adjust
                0x0000000000013010                etimer_expired
                0x000000000001302b                etimer_expiration_time
                0x0000000000013047                etimer_start_time
                0x0000000000013058                etimer_pending
                0x000000000001306e                etimer_next_expiration_time
                0x000000000001308b                etimer_stop
 .text          0x0000000000013122      0x425 obj_cooja/mtype595.a(ctimer.o)
                0x0000000000013280                ctimer_init
                0x00000000000132b1                ctimer_set
                0x000000000001337f                ctimer_reset
                0x0000000000013402                ctimer_restart
                0x0000000000013485                ctimer_stop
                0x00000000000134df                ctimer_expired
 .text          0x0000000000013547       0x2a obj_cooja/mtype595.a(energest.o)
                0x0000000000013547                energest_type_set
                0x0000000000013555                energest_init
                0x000000000001355c                energest_type_time
                0x000000000001356a                energest_flush
 .text          0x0000000000013571      0x106 obj_cooja/mtype595.a(stimer.o)
                0x0000000000013571                stimer_set
                0x000000000001359f                stimer_reset
                0x00000000000135c3                stimer_restart
                0x00000000000135e1                stimer_expired
                0x0000000000013622                stimer_remaining
                0x0000000000013654                stimer_elapsed
 .text          0x0000000000013677       0x27 obj_cooja/mtype595.a(random.o)
                0x0000000000013677                random_init
                0x0000000000013693                random_rand
 .text          0x000000000001369e      0x187 obj_cooja/mtype595.a(ringbuf.o)
                0x000000000001369e                ringbuf_init
                0x00000000000136db                ringbuf_put
                0x0000000000013765                ringbuf_get
                0x00000000000137de                ringbuf_size
                0x00000000000137f6                ringbuf_elements
 .text          0x0000000000013825       0x3a obj_cooja/mtype595.a(netstack.o)
                0x0000000000013825                netstack_init
 .text          0x000000000001385f      0x120 obj_cooja/mtype595.a(uip-debug.o)
                0x000000000001385f                uip_debug_ipaddr_print
                0x0000000000013925                uip_debug_lladdr_print
 .text          0x000000000001397f      0x53f obj_cooja/mtype595.a(packetbuf.o)
                0x000000000001397f                packetbuf_clear
                0x00000000000139bb                packetbuf_clear_hdr
                0x00000000000139c9                packetbuf_copyfrom
                0x0000000000013a1f                packetbuf_compact
                0x0000000000013acc                packetbuf_copyto_hdr
                0x0000000000013b26                packetbuf_copyto
                0x0000000000013bfb                packetbuf_hdralloc
                0x0000000000013c49                packetbuf_hdr_remove
                0x0000000000013c67                packetbuf_hdrreduce
                0x0000000000013cb3                packetbuf_set_datalen
                0x0000000000013ccb                packetbuf_dataptr
                0x0000000000013ce9                packetbuf_hdrptr
                0x0000000000013d03                packetbuf_reference
                0x0000000000013d33                packetbuf_is_reference
                0x0000000000013d54                packetbuf_reference_ptr
                0x0000000000013d61                packetbuf_datalen
                0x0000000000013d6e                packetbuf_hdrlen
                0x0000000000013d84                packetbuf_totlen
                0x0000000000013da3                packetbuf_attr_clear
                0x0000000000013e10                packetbuf_attr_copyto
                0x0000000000013e67                packetbuf_attr_copyfrom
 .text          0x0000000000013ebe      0x31e obj_cooja/mtype595.a(queuebuf.o)
                0x0000000000013ebe                queuebuf_init
                0x0000000000013edd                queuebuf_new_from_packetbuf
                0x0000000000013f98                queuebuf_update_attr_from_packetbuf
                0x0000000000013fc7                queuebuf_free
                0x000000000001402c                queuebuf_to_packetbuf
                0x0000000000014112                queuebuf_dataptr
                0x000000000001416f                queuebuf_datalen
                0x0000000000014183                queuebuf_addr
                0x00000000000141b2                queuebuf_attr
                0x00000000000141d5                queuebuf_debug_print
 .text          0x00000000000141dc     0x39f6 obj_cooja/mtype595.a(uip6.o)
                0x00000000000141dc                uip_add32
                0x00000000000143de                uip_chksum
                0x00000000000144d6                uip_icmp6chksum
                0x00000000000144e6                uip_tcpchksum
                0x00000000000144f6                uip_udpchksum
                0x0000000000014506                uip_init
                0x00000000000145fb                uip_connect
                0x00000000000147d1                uip_udp_new
                0x0000000000014971                uip_unlisten
                0x00000000000149db                uip_listen
                0x0000000000014cc9                uip_process
                0x0000000000017ae1                uip_htons
                0x0000000000017b00                uip_htonl
                0x0000000000017b44                uip_send
 .text          0x0000000000017bd2      0xd02 obj_cooja/mtype595.a(tcpip.o)
                0x0000000000017bd2                tcpip_output
                0x0000000000017c0c                tcpip_set_outputfunc
                0x0000000000017cae                tcp_connect
                0x0000000000017d18                tcp_unlisten
                0x0000000000017d97                tcp_listen
                0x0000000000017e12                tcp_attach
                0x0000000000017e40                udp_attach
                0x0000000000017e6e                udp_new
                0x0000000000017ed7                udp_broadcast_new
                0x00000000000181e9                tcpip_input
                0x000000000001821f                tcpip_ipv6_output
                0x00000000000186ab                tcpip_poll_udp
                0x00000000000186d5                tcpip_poll_tcp
                0x00000000000186ff                tcpip_uipcall
 .text          0x00000000000188d4      0x140 obj_cooja/mtype595.a(uip-udp-packet.)
                0x00000000000188d4                uip_udp_packet_send
                0x0000000000018953                uip_udp_packet_sendto
 .text          0x0000000000018a14      0x74a obj_cooja/mtype595.a(uip-icmp6.o)
                0x0000000000018a14                uip_icmp6_echo_request_input
                0x0000000000018c77                uip_icmp6_error_output
                0x0000000000018ff4                uip_icmp6_send
 .text          0x000000000001915e     0x1238 obj_cooja/mtype595.a(uip-nd6.o)
                0x00000000000191b6                uip_nd6_ns_input
                0x0000000000019ab3                uip_nd6_ns_output
                0x0000000000019e19                uip_nd6_na_input
 .text          0x000000000001a396      0x197 obj_cooja/mtype595.a(uip-packetqueue)
                0x000000000001a3ce                uip_packetqueue_new
                0x000000000001a3e4                uip_packetqueue_alloc
                0x000000000001a45a                uip_packetqueue_free
                0x000000000001a4ab                uip_packetqueue_buf
                0x000000000001a4d3                uip_packetqueue_buflen
                0x000000000001a4fe                uip_packetqueue_set_buflen
 .text          0x000000000001a52d     0x23cc obj_cooja/mtype595.a(sicslowpan.o)
                0x000000000001c881                sicslowpan_init
 .text          0x000000000001c8f9      0x289 obj_cooja/mtype595.a(neighbor-info.o)
                0x000000000001ca49                neighbor_info_packet_sent
                0x000000000001caca                neighbor_info_packet_received
                0x000000000001cb0b                neighbor_info_subscribe
                0x000000000001cb48                neighbor_info_get_metric
 .text          0x000000000001cb82     0x181b obj_cooja/mtype595.a(uip-ds6.o)
                0x000000000001cb82                uip_ds6_init
                0x000000000001cd89                uip_ds6_periodic
                0x000000000001d1bc                uip_ds6_list_loop
                0x000000000001d282                uip_ds6_nbr_add
                0x000000000001d473                uip_ds6_nbr_rm
                0x000000000001d4ad                uip_ds6_nbr_lookup
                0x000000000001d4fa                uip_ds6_defrt_add
                0x000000000001d5a8                uip_ds6_defrt_rm
                0x000000000001d5c2                uip_ds6_defrt_lookup
                0x000000000001d60f                uip_ds6_defrt_choose
                0x000000000001d6bb                uip_ds6_prefix_add
                0x000000000001d788                uip_ds6_prefix_rm
                0x000000000001d7a2                uip_ds6_prefix_lookup
                0x000000000001d7f5                uip_ds6_is_addr_onlink
                0x000000000001d885                uip_ds6_addr_add
                0x000000000001da10                uip_ds6_addr_rm
                0x000000000001dac4                uip_ds6_addr_lookup
                0x000000000001db12                uip_ds6_get_link_local
                0x000000000001dbb3                uip_ds6_get_global
                0x000000000001dc54                uip_ds6_maddr_add
                0x000000000001dcc9                uip_ds6_maddr_rm
                0x000000000001dce3                uip_ds6_maddr_lookup
                0x000000000001dd34                uip_ds6_aaddr_add
                0x000000000001dda9                uip_ds6_aaddr_rm
                0x000000000001ddc3                uip_ds6_aaddr_lookup
                0x000000000001de14                uip_ds6_route_lookup
                0x000000000001ded8                uip_ds6_route_add
                0x000000000001df87                uip_ds6_route_rm
                0x000000000001df99                uip_ds6_route_rm_by_nexthop
                0x000000000001e01f                uip_ds6_select_src
                0x000000000001e1a5                uip_ds6_set_addr_iid
                0x000000000001e1da                get_match_length
                0x000000000001e284                uip_ds6_dad
                0x000000000001e315                uip_ds6_dad_failed
                0x000000000001e353                uip_ds6_compute_reachable_time
 .text          0x000000000001e39d      0x20c obj_cooja/mtype595.a(collect-view.o)
                0x000000000001e39d                collect_view_construct_message
 .text          0x000000000001e5a9       0x1f obj_cooja/mtype595.a(collect-view-te)
                0x000000000001e5a9                collect_view_arch_read_sensors
 .text          0x000000000001e5c8       0x89 obj_cooja/mtype595.a(simEnvChange.o)
                0x000000000001e5c8                doActionsBeforeTick
                0x000000000001e60c                doActionsAfterTick
 .text          0x000000000001e651       0xdb obj_cooja/mtype595.a(cooja_mt.o)
                0x000000000001e651                cooja_mt_init
                0x000000000001e65d                cooja_mt_remove
                0x000000000001e669                cooja_mt_start
                0x000000000001e6a5                cooja_mt_exec
                0x000000000001e6e4                cooja_mt_exit
                0x000000000001e708                cooja_mt_yield
 .text          0x000000000001e72c      0x166 obj_cooja/mtype595.a(cooja_mtarch.o)
                0x000000000001e72c                cooja_mtarch_init
                0x000000000001e733                cooja_mtarch_start
                0x000000000001e7d2                cooja_sw
                0x000000000001e7fb                cooja_mtarch_exec
                0x000000000001e825                cooja_mtarch_remove
                0x000000000001e82c                cooja_mtarch_yield
                0x000000000001e838                cooja_mtarch_pstop
                0x000000000001e83f                cooja_mtarch_pstart
                0x000000000001e846                cooja_mtarch_stack_usage
 .text          0x000000000001e892       0xf8 obj_cooja/mtype595.a(rtimer-arch.o)
                0x000000000001e892                rtimer_arch_init
                0x000000000001e8b9                rtimer_arch_schedule
                0x000000000001e8d9                rtimer_arch_next
                0x000000000001e8e6                rtimer_arch_pending
                0x000000000001e8f2                rtimer_arch_check
                0x000000000001e929                rtimer_arch_now
 .text          0x000000000001e98a       0x23 obj_cooja/mtype595.a(watchdog.o)
                0x000000000001e98a                watchdog_init
                0x000000000001e991                watchdog_start
                0x000000000001e998                watchdog_periodic
                0x000000000001e99f                watchdog_stop
                0x000000000001e9a6                watchdog_reboot
 .text          0x000000000001e9ad       0xba obj_cooja/mtype595.a(beep.o)
                0x000000000001e9ad                beep_alarm
                0x000000000001e9c4                beep_beep
                0x000000000001e9d8                beep
                0x000000000001e9e9                beep_down
                0x000000000001e9fd                beep_on
                0x000000000001ea0e                beep_off
                0x000000000001ea1f                beep_spinup
                0x000000000001ea30                beep_quick
                0x000000000001ea44                beep_long
 .text          0x000000000001ea67      0x12d obj_cooja/mtype595.a(button-sensor.o)
 .text          0x000000000001eb94       0x57 obj_cooja/mtype595.a(leds-arch.o)
                0x000000000001eb94                leds_arch_init
                0x000000000001eba5                leds_arch_get
                0x000000000001ebb5                leds_arch_set
 .text          0x000000000001ebeb       0x39 obj_cooja/mtype595.a(moteid.o)
 .text          0x000000000001ec24       0xe5 obj_cooja/mtype595.a(pir-sensor.o)
 .text          0x000000000001ed09      0x177 obj_cooja/mtype595.a(rs232.o)
                0x000000000001ed09                rs232_init
                0x000000000001ed10                rs232_set_speed
                0x000000000001ed1c                rs232_set_input
                0x000000000001ed32                rs232_send
                0x000000000001ed59                rs232_print
                0x000000000001ed80                slip_arch_writeb
 .text          0x000000000001ee80       0xe5 obj_cooja/mtype595.a(vib-sensor.o)
 .text          0x000000000001ef65       0x57 obj_cooja/mtype595.a(clock.o)
                0x000000000001ef65                clock_init
                0x000000000001ef6c                clock_time
                0x000000000001ef7c                clock_seconds
                0x000000000001efa4                clock_delay
 .text          0x000000000001efbc      0x30e obj_cooja/mtype595.a(log.o)
                0x000000000001efbc                simlog_char
                0x000000000001f015                simlog
                0x000000000001f0b4                log_message
                0x000000000001f0ed                log_set_putchar_with_slip
                0x000000000001f100                log_putchar
                0x000000000001f180                log_puts
                0x000000000001f1a9                log_printf
 .text          0x000000000001f2ca      0x32e obj_cooja/mtype595.a(cfs-cooja.o)
                0x000000000001f2ca                cfs_open
                0x000000000001f320                cfs_close
                0x000000000001f331                cfs_read
                0x000000000001f3f5                cfs_write
                0x000000000001f4e2                cfs_seek
                0x000000000001f58d                cfs_remove
                0x000000000001f5b9                cfs_opendir
                0x000000000001f5cc                cfs_readdir
                0x000000000001f5df                cfs_closedir
 .text          0x000000000001f5f8      0x3fa obj_cooja/mtype595.a(cooja-radio.o)
                0x000000000001f5f8                radio_set_channel
                0x000000000001f60e                radio_set_txpower
                0x000000000001f627                radio_signal_strength_last
                0x000000000001f636                radio_signal_strength_current
 .text          0x000000000001f9f2      0x33f obj_cooja/mtype595.a(sensors.o)
                0x000000000001fa37                sensors_first
                0x000000000001fa47                sensors_next
                0x000000000001fa72                sensors_changed
                0x000000000001fabb                sensors_find
 .text          0x000000000001fd31      0x174 obj_cooja/mtype595.a(leds.o)
                0x000000000001fd76                leds_init
                0x000000000001fd96                leds_blink
                0x000000000001fdd6                leds_get
                0x000000000001fde1                leds_on
                0x000000000001fe20                leds_off
                0x000000000001fe5f                leds_toggle
                0x000000000001fe7a                leds_invert
 .text          0x000000000001fea5        0x0 obj_cooja/mtype595.a(rimestats.o)
 .text          0x000000000001fea5      0x711 obj_cooja/mtype595.a(frame802154.o)
                0x000000000001ffbe                frame802154_hdrlen
                0x0000000000020021                frame802154_create
                0x000000000002028a                frame802154_parse
 .text          0x00000000000205b6      0x412 obj_cooja/mtype595.a(rpl.o)
                0x00000000000205b6                rpl_purge_routes
                0x000000000002066c                rpl_remove_routes
                0x00000000000206cd                rpl_add_route
                0x000000000002089d                rpl_ipv6_neighbor_callback
                0x000000000002094d                rpl_init
 .text          0x00000000000209c8       0xdf obj_cooja/mtype595.a(timer.o)
                0x00000000000209c8                timer_set
                0x00000000000209f6                timer_reset
                0x0000000000020a1a                timer_restart
                0x0000000000020a38                timer_expired
                0x0000000000020a75                timer_remaining
 .text          0x0000000000020aa7       0xf6 obj_cooja/mtype595.a(rtimer.o)
                0x0000000000020aa7                rtimer_init
                0x0000000000020ab3                rtimer_set
                0x0000000000020b30                rtimer_run_next
 .text          0x0000000000020b9d      0x591 obj_cooja/mtype595.a(neighbor-attr.o)
                0x0000000000020c19                neighbor_attr_list_neighbors
                0x0000000000020ccb                neighbor_attr_register
                0x0000000000020d34                neighbor_attr_has_neighbor
                0x0000000000020d57                neighbor_attr_add_neighbor
                0x0000000000020e6a                neighbor_attr_remove_neighbor
                0x0000000000020ec4                neighbor_attr_get_data
                0x0000000000020f1a                neighbor_attr_set_data
                0x0000000000020fc4                neighbor_attr_tick
                0x0000000000020ff4                neighbor_attr_get_timeout
                0x00000000000210c1                neighbor_attr_set_timeout
 .text          0x000000000002112e        0x0 /usr/lib/gcc/x86_64-linux-gnu/5/crtendS.o
 .text          0x000000000002112e        0x0 /usr/lib/gcc/x86_64-linux-gnu/5/../../../x86_64-linux-gnu/crtn.o
 *(.gnu.warning)

.fini           0x0000000000021130        0x9
 *(SORT_NONE(.fini))
 .fini          0x0000000000021130        0x4 /usr/lib/gcc/x86_64-linux-gnu/5/../../../x86_64-linux-gnu/crti.o
                0x0000000000021130                _fini
 .fini          0x0000000000021134        0x5 /usr/lib/gcc/x86_64-linux-gnu/5/../../../x86_64-linux-gnu/crtn.o
                [!provide]                        PROVIDE (__etext = .)
                [!provide]                        PROVIDE (_etext = .)
                [!provide]                        PROVIDE (etext = .)

.rodata         0x0000000000021140      0x663
 *(.rodata .rodata.* .gnu.linkonce.r.*)
 .rodata        0x0000000000021140       0xb8 udp-sender.co
 .rodata        0x00000000000211f8      0x127 obj_cooja/mtype595.o
 *fill*         0x000000000002131f        0x1 
 .rodata        0x0000000000021320       0xd6 obj_cooja/collect-common.o
 *fill*         0x00000000000213f6        0x2 
 .rodata        0x00000000000213f8        0x8 obj_cooja/mtype595.a(rimeaddr.o)
                0x00000000000213f8                rimeaddr_null
 .rodata        0x0000000000021400       0x96 obj_cooja/mtype595.a(nullrdc.o)
 .rodata        0x0000000000021496        0x4 obj_cooja/mtype595.a(framer-802154.o)
 .rodata        0x000000000002149a        0x5 obj_cooja/mtype595.a(csma.o)
 .rodata        0x000000000002149f       0x24 obj_cooja/mtype595.a(rpl-dag.o)
 *fill*         0x00000000000214c3        0x1 
 .rodata        0x00000000000214c4       0x40 obj_cooja/mtype595.a(rpl-icmp6.o)
 .rodata        0x0000000000021504       0x28 obj_cooja/mtype595.a(rpl-of-fuzzy.o)
 .rodata        0x000000000002152c        0xe obj_cooja/mtype595.a(serial-line.o)
 .rodata        0x000000000002153a        0xc obj_cooja/mtype595.a(etimer.o)
 .rodata        0x0000000000021546        0xf obj_cooja/mtype595.a(ctimer.o)
 .rodata        0x0000000000021555        0xd obj_cooja/mtype595.a(uip-debug.o)
 *fill*         0x0000000000021562        0x2 
 .rodata        0x0000000000021564      0x1ac obj_cooja/mtype595.a(uip6.o)
 .rodata        0x0000000000021710        0xd obj_cooja/mtype595.a(tcpip.o)
 .rodata        0x000000000002171d       0x28 obj_cooja/mtype595.a(sicslowpan.o)
                0x000000000002171d                unc_llconf
                0x0000000000021721                unc_ctxconf
                0x0000000000021725                unc_mxconf
                0x0000000000021729                llprefix
 .rodata        0x0000000000021745        0x7 obj_cooja/mtype595.a(button-sensor.o)
 .rodata        0x000000000002174c        0x4 obj_cooja/mtype595.a(pir-sensor.o)
 .rodata        0x0000000000021750        0x6 obj_cooja/mtype595.a(rs232.o)
 .rodata        0x0000000000021756        0xa obj_cooja/mtype595.a(vib-sensor.o)
 .rodata        0x0000000000021760       0x27 obj_cooja/mtype595.a(cfs-cooja.o)
 .rodata        0x0000000000021787       0x14 obj_cooja/mtype595.a(cooja-radio.o)
 .rodata        0x000000000002179b        0x8 obj_cooja/mtype595.a(sensors.o)

.rodata1
 *(.rodata1)

.eh_frame_hdr   0x00000000000217a4     0x101c
 *(.eh_frame_hdr)
 .eh_frame_hdr  0x00000000000217a4     0x101c udp-sender.co
                0x00000000000217a4                __GNU_EH_FRAME_HDR
 *(.eh_frame_entry .eh_frame_entry.*)

.eh_frame       0x00000000000227c0     0x4104
 *(.eh_frame)
 .eh_frame      0x00000000000227c0       0x40 /usr/lib/gcc/x86_64-linux-gnu/5/../../../x86_64-linux-gnu/crti.o
 .eh_frame      0x0000000000022800       0x18 /usr/lib/gcc/x86_64-linux-gnu/5/../../../x86_64-linux-gnu/crti.o
                                         0x30 (size before relaxing)
 .eh_frame      0x0000000000022818      0x100 udp-sender.co
                                        0x118 (size before relaxing)
 .eh_frame      0x0000000000022918      0x138 obj_cooja/mtype595.o
                                        0x150 (size before relaxing)
 .eh_frame      0x0000000000022a50       0xa0 obj_cooja/collect-common.o
                                         0xb8 (size before relaxing)
 .eh_frame      0x0000000000022af0       0x60 obj_cooja/mtype595.a(rimeaddr.o)
                                         0x78 (size before relaxing)
 .eh_frame      0x0000000000022b50      0x148 obj_cooja/mtype595.a(nullrdc.o)
                                        0x160 (size before relaxing)
 .eh_frame      0x0000000000022c98       0x20 obj_cooja/mtype595.a(mac.o)
                                         0x38 (size before relaxing)
 .eh_frame      0x0000000000022cb8       0xe8 obj_cooja/mtype595.a(framer-802154.o)
                                        0x100 (size before relaxing)
 .eh_frame      0x0000000000022da0      0x1c0 obj_cooja/mtype595.a(csma.o)
                                        0x1d8 (size before relaxing)
 .eh_frame      0x0000000000022f60      0x2c0 obj_cooja/mtype595.a(rpl-dag.o)
                                        0x2d8 (size before relaxing)
 .eh_frame      0x0000000000023220      0x220 obj_cooja/mtype595.a(rpl-icmp6.o)
                                        0x238 (size before relaxing)
 .eh_frame      0x0000000000023440      0x188 obj_cooja/mtype595.a(rpl-timers.o)
                                        0x1a0 (size before relaxing)
 .eh_frame      0x00000000000235c8      0x1d0 obj_cooja/mtype595.a(rpl-of-fuzzy.o)
                                        0x1e8 (size before relaxing)
 .eh_frame      0x0000000000023798      0x168 obj_cooja/mtype595.a(fuzzify.o)
                                        0x180 (size before relaxing)
 .eh_frame      0x0000000000023900       0x20 obj_cooja/mtype595.a(qos.o)
                                         0x38 (size before relaxing)
 .eh_frame      0x0000000000023920       0x20 obj_cooja/mtype595.a(quality.o)
                                         0x38 (size before relaxing)
 .eh_frame      0x0000000000023940      0x1c8 obj_cooja/mtype595.a(process.o)
                                        0x1e0 (size before relaxing)
 .eh_frame      0x0000000000023b08       0x40 obj_cooja/mtype595.a(autostart.o)
                                         0x58 (size before relaxing)
 .eh_frame      0x0000000000023b48       0x60 obj_cooja/mtype595.a(serial-line.o)
                                         0x78 (size before relaxing)
 .eh_frame      0x0000000000023ba8       0x80 obj_cooja/mtype595.a(memb.o)
                                         0x98 (size before relaxing)
 .eh_frame      0x0000000000023c28      0x180 obj_cooja/mtype595.a(list.o)
                                        0x198 (size before relaxing)
 .eh_frame      0x0000000000023da8      0x1c0 obj_cooja/mtype595.a(etimer.o)
                                        0x1d8 (size before relaxing)
 .eh_frame      0x0000000000023f68       0xe0 obj_cooja/mtype595.a(ctimer.o)
                                         0xf8 (size before relaxing)
 .eh_frame      0x0000000000024048       0x80 obj_cooja/mtype595.a(energest.o)
                                         0x98 (size before relaxing)
 .eh_frame      0x00000000000240c8       0xc0 obj_cooja/mtype595.a(stimer.o)
                                         0xd8 (size before relaxing)
 .eh_frame      0x0000000000024188       0x40 obj_cooja/mtype595.a(random.o)
                                         0x58 (size before relaxing)
 .eh_frame      0x00000000000241c8       0xa0 obj_cooja/mtype595.a(ringbuf.o)
                                         0xb8 (size before relaxing)
 .eh_frame      0x0000000000024268       0x20 obj_cooja/mtype595.a(netstack.o)
                                         0x38 (size before relaxing)
 .eh_frame      0x0000000000024288       0x40 obj_cooja/mtype595.a(uip-debug.o)
                                         0x58 (size before relaxing)
 .eh_frame      0x00000000000242c8      0x2a8 obj_cooja/mtype595.a(packetbuf.o)
                                        0x2c0 (size before relaxing)
 .eh_frame      0x0000000000024570      0x148 obj_cooja/mtype595.a(queuebuf.o)
                                        0x160 (size before relaxing)
 .eh_frame      0x00000000000246b8      0x250 obj_cooja/mtype595.a(uip6.o)
                                        0x268 (size before relaxing)
 .eh_frame      0x0000000000024908      0x270 obj_cooja/mtype595.a(tcpip.o)
                                        0x288 (size before relaxing)
 .eh_frame      0x0000000000024b78       0x40 obj_cooja/mtype595.a(uip-udp-packet.)
                                         0x58 (size before relaxing)
 .eh_frame      0x0000000000024bb8       0x68 obj_cooja/mtype595.a(uip-icmp6.o)
                                         0x80 (size before relaxing)
 .eh_frame      0x0000000000024c20       0x88 obj_cooja/mtype595.a(uip-nd6.o)
                                         0xa0 (size before relaxing)
 .eh_frame      0x0000000000024ca8       0xe0 obj_cooja/mtype595.a(uip-packetqueue)
                                         0xf8 (size before relaxing)
 .eh_frame      0x0000000000024d88      0x1e8 obj_cooja/mtype595.a(sicslowpan.o)
                                        0x200 (size before relaxing)
 .eh_frame      0x0000000000024f70       0xe0 obj_cooja/mtype595.a(neighbor-info.o)
                                         0xf8 (size before relaxing)
 .eh_frame      0x0000000000025050      0x468 obj_cooja/mtype595.a(uip-ds6.o)
                                        0x480 (size before relaxing)
 .eh_frame      0x00000000000254b8       0x20 obj_cooja/mtype595.a(collect-view.o)
                                         0x38 (size before relaxing)
 .eh_frame      0x00000000000254d8       0x20 obj_cooja/mtype595.a(collect-view-te)
                                         0x38 (size before relaxing)
 .eh_frame      0x00000000000254f8       0x40 obj_cooja/mtype595.a(simEnvChange.o)
                                         0x58 (size before relaxing)
 .eh_frame      0x0000000000025538       0xc0 obj_cooja/mtype595.a(cooja_mt.o)
                                         0xd8 (size before relaxing)
 .eh_frame      0x00000000000255f8      0x120 obj_cooja/mtype595.a(cooja_mtarch.o)
                                        0x138 (size before relaxing)
 .eh_frame      0x0000000000025718       0xc0 obj_cooja/mtype595.a(rtimer-arch.o)
                                         0xd8 (size before relaxing)
 .eh_frame      0x00000000000257d8       0xa0 obj_cooja/mtype595.a(watchdog.o)
                                         0xb8 (size before relaxing)
 .eh_frame      0x0000000000025878      0x160 obj_cooja/mtype595.a(beep.o)
                                        0x178 (size before relaxing)
 .eh_frame      0x00000000000259d8       0xa0 obj_cooja/mtype595.a(button-sensor.o)
                                         0xb8 (size before relaxing)
 .eh_frame      0x0000000000025a78       0xa0 obj_cooja/mtype595.a(leds-arch.o)
                                         0xb8 (size before relaxing)
 .eh_frame      0x0000000000025b18       0x40 obj_cooja/mtype595.a(moteid.o)
                                         0x58 (size before relaxing)
 .eh_frame      0x0000000000025b58       0xa0 obj_cooja/mtype595.a(pir-sensor.o)
                                         0xb8 (size before relaxing)
 .eh_frame      0x0000000000025bf8      0x100 obj_cooja/mtype595.a(rs232.o)
                                        0x118 (size before relaxing)
 .eh_frame      0x0000000000025cf8       0xa0 obj_cooja/mtype595.a(vib-sensor.o)
                                         0xb8 (size before relaxing)
 .eh_frame      0x0000000000025d98       0xc0 obj_cooja/mtype595.a(clock.o)
                                         0xd8 (size before relaxing)
 .eh_frame      0x0000000000025e58      0x128 obj_cooja/mtype595.a(log.o)
                                        0x140 (size before relaxing)
 .eh_frame      0x0000000000025f80      0x160 obj_cooja/mtype595.a(cfs-cooja.o)
                                        0x178 (size before relaxing)
 .eh_frame      0x00000000000260e0      0x220 obj_cooja/mtype595.a(cooja-radio.o)
                                        0x238 (size before relaxing)
 .eh_frame      0x0000000000026300       0xc0 obj_cooja/mtype595.a(sensors.o)
                                         0xd8 (size before relaxing)
 .eh_frame      0x00000000000263c0      0x100 obj_cooja/mtype595.a(leds.o)
                                        0x118 (size before relaxing)
 .eh_frame      0x00000000000264c0       0xa0 obj_cooja/mtype595.a(frame802154.o)
                                         0xb8 (size before relaxing)
 .eh_frame      0x0000000000026560       0xc0 obj_cooja/mtype595.a(rpl.o)
                                         0xd8 (size before relaxing)
 .eh_frame      0x0000000000026620       0xa0 obj_cooja/mtype595.a(timer.o)
                                         0xb8 (size before relaxing)
 .eh_frame      0x00000000000266c0       0x60 obj_cooja/mtype595.a(rtimer.o)
                                         0x78 (size before relaxing)
 .eh_frame      0x0000000000026720      0x1a0 obj_cooja/mtype595.a(neighbor-attr.o)
                                        0x1b8 (size before relaxing)
 .eh_frame      0x00000000000268c0        0x4 /usr/lib/gcc/x86_64-linux-gnu/5/crtendS.o
 *(.eh_frame.*)

.gcc_except_table
 *(.gcc_except_table .gcc_except_table.*)

.gnu_extab
 *(.gnu_extab*)

.exception_ranges
 *(.exception_ranges .exception_ranges*)
                0x0000000000227808                . = DATA_SEGMENT_ALIGN (CONSTANT (MAXPAGESIZE), CONSTANT (COMMONPAGESIZE))

.eh_frame
 *(.eh_frame)
 *(.eh_frame.*)

.gnu_extab
 *(.gnu_extab)

.gcc_except_table
 *(.gcc_except_table .gcc_except_table.*)

.exception_ranges
 *(.exception_ranges .exception_ranges*)

.tdata
 *(.tdata .tdata.* .gnu.linkonce.td.*)

.tbss
 *(.tbss .tbss.* .gnu.linkonce.tb.*)
 *(.tcommon)

.preinit_array
 *(.preinit_array)

.init_array     0x0000000000227808        0x8
 *(SORT_BY_INIT_PRIORITY(.init_array.*) SORT_BY_INIT_PRIORITY(.ctors.*))
 *(.init_array EXCLUDE_FILE(*crtend?.o *crtend.o *crtbegin?.o *crtbegin.o) .ctors)
 .init_array    0x0000000000227808        0x8 /usr/lib/gcc/x86_64-linux-gnu/5/crtbeginS.o

.fini_array     0x0000000000227810        0x8
 *(SORT_BY_INIT_PRIORITY(.fini_array.*) SORT_BY_INIT_PRIORITY(.dtors.*))
 *(.fini_array EXCLUDE_FILE(*crtend?.o *crtend.o *crtbegin?.o *crtbegin.o) .dtors)
 .fini_array    0x0000000000227810        0x8 /usr/lib/gcc/x86_64-linux-gnu/5/crtbeginS.o

.ctors
 *crtbegin.o(.ctors)
 *crtbegin?.o(.ctors)
 *(EXCLUDE_FILE(*crtend?.o *crtend.o) .ctors)
 *(SORT_BY_NAME(.ctors.*))
 *(.ctors)

.dtors
 *crtbegin.o(.dtors)
 *crtbegin?.o(.dtors)
 *(EXCLUDE_FILE(*crtend?.o *crtend.o) .dtors)
 *(SORT_BY_NAME(.dtors.*))
 *(.dtors)

.jcr            0x0000000000227818        0x8
 *(.jcr)
 .jcr           0x0000000000227818        0x0 /usr/lib/gcc/x86_64-linux-gnu/5/crtbeginS.o
 .jcr           0x0000000000227818        0x8 /usr/lib/gcc/x86_64-linux-gnu/5/crtendS.o

.data.rel.ro    0x0000000000227820      0x2d8
 *(.data.rel.ro.local* .gnu.linkonce.d.rel.ro.local.*)
 .data.rel.ro.local
                0x0000000000227820       0x38 obj_cooja/mtype595.a(nullrdc.o)
                0x0000000000227820                nullrdc_driver
 *fill*         0x0000000000227858        0x8 
 .data.rel.ro.local
                0x0000000000227860       0x10 obj_cooja/mtype595.a(framer-802154.o)
                0x0000000000227860                framer_802154
 *fill*         0x0000000000227870       0x10 
 .data.rel.ro.local
                0x0000000000227880       0x38 obj_cooja/mtype595.a(csma.o)
                0x0000000000227880                csma_driver
 *fill*         0x00000000002278b8        0x8 
 .data.rel.ro.local
                0x00000000002278c0       0x10 obj_cooja/mtype595.a(beep.o)
                0x00000000002278c0                beep_interface
 *fill*         0x00000000002278d0       0x10 
 .data.rel.ro.local
                0x00000000002278e0       0x40 obj_cooja/mtype595.a(button-sensor.o)
                0x00000000002278e0                button_interface
                0x0000000000227900                button_sensor
 .data.rel.ro.local
                0x0000000000227920       0x10 obj_cooja/mtype595.a(leds-arch.o)
                0x0000000000227920                leds_interface
 .data.rel.ro.local
                0x0000000000227930       0x10 obj_cooja/mtype595.a(moteid.o)
                0x0000000000227930                moteid_interface
 .data.rel.ro.local
                0x0000000000227940       0x40 obj_cooja/mtype595.a(pir-sensor.o)
                0x0000000000227940                pir_interface
                0x0000000000227960                pir_sensor
 .data.rel.ro.local
                0x0000000000227980       0x10 obj_cooja/mtype595.a(rs232.o)
                0x0000000000227980                rs232_interface
 *fill*         0x0000000000227990       0x10 
 .data.rel.ro.local
                0x00000000002279a0       0x40 obj_cooja/mtype595.a(vib-sensor.o)
                0x00000000002279a0                vib_interface
                0x00000000002279c0                vib_sensor
 .data.rel.ro.local
                0x00000000002279e0       0x10 obj_cooja/mtype595.a(clock.o)
                0x00000000002279e0                clock_interface
 .data.rel.ro.local
                0x00000000002279f0       0x10 obj_cooja/mtype595.a(log.o)
                0x00000000002279f0                simlog_interface
 .data.rel.ro.local
                0x0000000000227a00       0x10 obj_cooja/mtype595.a(cfs-cooja.o)
                0x0000000000227a00                cfs_interface
 *fill*         0x0000000000227a10       0x10 
 .data.rel.ro.local
                0x0000000000227a20       0x98 obj_cooja/mtype595.a(cooja-radio.o)
                0x0000000000227a20                radio_interface
                0x0000000000227a40                cooja_radio_driver
 *(.data.rel.ro .data.rel.ro.* .gnu.linkonce.d.rel.ro.*)
 .data.rel.ro   0x0000000000227ab8        0x0 /usr/lib/gcc/x86_64-linux-gnu/5/../../../x86_64-linux-gnu/crti.o
 *fill*         0x0000000000227ab8        0x8 
 .data.rel.ro   0x0000000000227ac0       0x18 udp-sender.co
                0x0000000000227ac0                autostart_processes
 .data.rel.ro   0x0000000000227ad8        0x8 obj_cooja/mtype595.a(rpl-dag.o)
 .data.rel.ro   0x0000000000227ae0       0x18 obj_cooja/mtype595.a(sicslowpan.o)
                0x0000000000227ae0                sicslowpan_driver

.dynamic        0x0000000000227af8      0x1c0
 *(.dynamic)
 .dynamic       0x0000000000227af8      0x1c0 /usr/lib/gcc/x86_64-linux-gnu/5/../../../x86_64-linux-gnu/crti.o
                0x0000000000227af8                _DYNAMIC

.got            0x0000000000227cb8      0x348
 *(.got)
 .got           0x0000000000227cb8      0x348 /usr/lib/gcc/x86_64-linux-gnu/5/../../../x86_64-linux-gnu/crti.o
 *(.igot)
                0x0000000000228fe8                . = DATA_SEGMENT_RELRO_END (., (SIZEOF (.got.plt) >= 0x18)?0x18:0x0)

.got.plt        0x0000000000228000      0x7e0
 *(.got.plt)
 .got.plt       0x0000000000228000      0x7e0 /usr/lib/gcc/x86_64-linux-gnu/5/../../../x86_64-linux-gnu/crti.o
                0x0000000000228000                _GLOBAL_OFFSET_TABLE_
 *(.igot.plt)

.data           0x00000000002287e0      0x3c8
 *(.data .data.* .gnu.linkonce.d.*)
 .data          0x00000000002287e0        0x0 /usr/lib/gcc/x86_64-linux-gnu/5/../../../x86_64-linux-gnu/crti.o
 .data          0x00000000002287e0        0x0 /usr/lib/gcc/x86_64-linux-gnu/5/crtbeginS.o
 .data.rel.local
                0x00000000002287e0        0x8 /usr/lib/gcc/x86_64-linux-gnu/5/crtbeginS.o
                0x00000000002287e0                __dso_handle
 .data          0x00000000002287e8        0x0 udp-sender.co
 *fill*         0x00000000002287e8       0x18 
 .data.rel.local
                0x0000000000228800       0x20 udp-sender.co
                0x0000000000228800                udp_client_process
 .data          0x0000000000228820        0x0 obj_cooja/mtype595.o
 .data.rel      0x0000000000228820       0x80 obj_cooja/mtype595.o
                0x0000000000228820                simInterfaces
                0x0000000000228880                sensors
 .data          0x00000000002288a0        0x4 obj_cooja/collect-common.o
 *fill*         0x00000000002288a4       0x1c 
 .data.rel.local
                0x00000000002288c0       0x20 obj_cooja/collect-common.o
                0x00000000002288c0                collect_common_process
 .data          0x00000000002288e0        0x0 obj_cooja/mtype595.a(rimeaddr.o)
 .data          0x00000000002288e0        0x0 obj_cooja/mtype595.a(nullrdc.o)
 .data          0x00000000002288e0        0x0 obj_cooja/mtype595.a(mac.o)
 .data          0x00000000002288e0        0x0 obj_cooja/mtype595.a(framer-802154.o)
 .data          0x00000000002288e0        0x0 obj_cooja/mtype595.a(csma.o)
 .data.rel.local
                0x00000000002288e0       0x20 obj_cooja/mtype595.a(csma.o)
 .data          0x0000000000228900        0x4 obj_cooja/mtype595.a(rpl-dag.o)
 *fill*         0x0000000000228904        0xc 
 .data.rel.local
                0x0000000000228910       0x38 obj_cooja/mtype595.a(rpl-dag.o)
 .data          0x0000000000228948        0x0 obj_cooja/mtype595.a(rpl-icmp6.o)
 *fill*         0x0000000000228948        0x8 
 .data.rel.local
                0x0000000000228950       0x18 obj_cooja/mtype595.a(rpl-icmp6.o)
 .data          0x0000000000228968        0x0 obj_cooja/mtype595.a(rpl-timers.o)
 .data          0x0000000000228968        0x4 obj_cooja/mtype595.a(rpl-of-fuzzy.o)
 *fill*         0x000000000022896c       0x14 
 .data.rel.local
                0x0000000000228980       0x58 obj_cooja/mtype595.a(rpl-of-fuzzy.o)
                0x00000000002289a0                rpl_of_fuzzy
 .data          0x00000000002289d8        0x0 obj_cooja/mtype595.a(fuzzify.o)
 .data          0x00000000002289d8        0x0 obj_cooja/mtype595.a(qos.o)
 .data          0x00000000002289d8        0x0 obj_cooja/mtype595.a(quality.o)
 .data          0x00000000002289d8        0x0 obj_cooja/mtype595.a(process.o)
 .data          0x00000000002289d8        0x0 obj_cooja/mtype595.a(autostart.o)
 .data          0x00000000002289d8        0x0 obj_cooja/mtype595.a(serial-line.o)
 *fill*         0x00000000002289d8        0x8 
 .data.rel.local
                0x00000000002289e0       0x20 obj_cooja/mtype595.a(serial-line.o)
                0x00000000002289e0                serial_line_process
 .data          0x0000000000228a00        0x0 obj_cooja/mtype595.a(memb.o)
 .data          0x0000000000228a00        0x0 obj_cooja/mtype595.a(list.o)
 .data          0x0000000000228a00        0x0 obj_cooja/mtype595.a(etimer.o)
 .data.rel.local
                0x0000000000228a00       0x20 obj_cooja/mtype595.a(etimer.o)
                0x0000000000228a00                etimer_process
 .data          0x0000000000228a20        0x0 obj_cooja/mtype595.a(ctimer.o)
 .data.rel.local
                0x0000000000228a20       0x40 obj_cooja/mtype595.a(ctimer.o)
                0x0000000000228a40                ctimer_process
 .data          0x0000000000228a60        0x0 obj_cooja/mtype595.a(energest.o)
 .data          0x0000000000228a60        0x0 obj_cooja/mtype595.a(stimer.o)
 .data          0x0000000000228a60        0x0 obj_cooja/mtype595.a(random.o)
 .data          0x0000000000228a60        0x0 obj_cooja/mtype595.a(ringbuf.o)
 .data          0x0000000000228a60        0x0 obj_cooja/mtype595.a(netstack.o)
 .data          0x0000000000228a60        0x0 obj_cooja/mtype595.a(uip-debug.o)
 .data          0x0000000000228a60        0x0 obj_cooja/mtype595.a(packetbuf.o)
 .data.rel.local
                0x0000000000228a60        0x8 obj_cooja/mtype595.a(packetbuf.o)
 .data          0x0000000000228a68        0x0 obj_cooja/mtype595.a(queuebuf.o)
 *fill*         0x0000000000228a68        0x8 
 .data.rel.local
                0x0000000000228a70       0x38 obj_cooja/mtype595.a(queuebuf.o)
 .data          0x0000000000228aa8        0x0 obj_cooja/mtype595.a(uip6.o)
 .data          0x0000000000228aa8        0x0 obj_cooja/mtype595.a(tcpip.o)
 *fill*         0x0000000000228aa8       0x18 
 .data.rel.local
                0x0000000000228ac0       0x20 obj_cooja/mtype595.a(tcpip.o)
                0x0000000000228ac0                tcpip_process
 .data          0x0000000000228ae0        0x0 obj_cooja/mtype595.a(uip-udp-packet.)
 .data          0x0000000000228ae0        0x0 obj_cooja/mtype595.a(uip-icmp6.o)
 .data          0x0000000000228ae0        0x0 obj_cooja/mtype595.a(uip-nd6.o)
 .data          0x0000000000228ae0        0x0 obj_cooja/mtype595.a(uip-packetqueue)
 .data.rel.local
                0x0000000000228ae0       0x18 obj_cooja/mtype595.a(uip-packetqueue)
 .data          0x0000000000228af8        0x0 obj_cooja/mtype595.a(sicslowpan.o)
 .data          0x0000000000228af8        0x0 obj_cooja/mtype595.a(neighbor-info.o)
 *fill*         0x0000000000228af8        0x8 
 .data.rel.local
                0x0000000000228b00       0x20 obj_cooja/mtype595.a(neighbor-info.o)
 .data          0x0000000000228b20        0x0 obj_cooja/mtype595.a(uip-ds6.o)
 .data          0x0000000000228b20        0x0 obj_cooja/mtype595.a(collect-view.o)
 .data          0x0000000000228b20        0x0 obj_cooja/mtype595.a(collect-view-te)
 .data          0x0000000000228b20        0x0 obj_cooja/mtype595.a(simEnvChange.o)
 .data          0x0000000000228b20        0x0 obj_cooja/mtype595.a(cooja_mt.o)
 .data          0x0000000000228b20        0x0 obj_cooja/mtype595.a(cooja_mtarch.o)
 .data          0x0000000000228b20        0x0 obj_cooja/mtype595.a(rtimer-arch.o)
 .data          0x0000000000228b20        0x0 obj_cooja/mtype595.a(watchdog.o)
 .data          0x0000000000228b20        0x0 obj_cooja/mtype595.a(beep.o)
 .data          0x0000000000228b20        0x0 obj_cooja/mtype595.a(button-sensor.o)
 .data          0x0000000000228b20        0x0 obj_cooja/mtype595.a(leds-arch.o)
 .data          0x0000000000228b20        0x0 obj_cooja/mtype595.a(moteid.o)
 .data          0x0000000000228b20        0x0 obj_cooja/mtype595.a(pir-sensor.o)
 .data          0x0000000000228b20        0x0 obj_cooja/mtype595.a(rs232.o)
 .data          0x0000000000228b20        0x0 obj_cooja/mtype595.a(vib-sensor.o)
 .data          0x0000000000228b20        0x0 obj_cooja/mtype595.a(clock.o)
 .data          0x0000000000228b20        0x0 obj_cooja/mtype595.a(log.o)
 .data          0x0000000000228b20        0x0 obj_cooja/mtype595.a(cfs-cooja.o)
 .data          0x0000000000228b20       0x14 obj_cooja/mtype595.a(cooja-radio.o)
                0x0000000000228b20                simRadioHWOn
                0x0000000000228b24                simSignalStrength
                0x0000000000228b28                simLastSignalStrength
                0x0000000000228b2c                simPower
                0x0000000000228b30                simRadioChannel
 *fill*         0x0000000000228b34        0xc 
 .data.rel.local
                0x0000000000228b40       0x20 obj_cooja/mtype595.a(cooja-radio.o)
                0x0000000000228b40                cooja_radio_process
 .data          0x0000000000228b60        0x0 obj_cooja/mtype595.a(sensors.o)
 .data.rel.local
                0x0000000000228b60       0x20 obj_cooja/mtype595.a(sensors.o)
                0x0000000000228b60                sensors_process
 .data          0x0000000000228b80        0x0 obj_cooja/mtype595.a(leds.o)
 .data          0x0000000000228b80        0x0 obj_cooja/mtype595.a(rimestats.o)
 .data          0x0000000000228b80        0x0 obj_cooja/mtype595.a(frame802154.o)
 .data          0x0000000000228b80        0x0 obj_cooja/mtype595.a(rpl.o)
 .data          0x0000000000228b80        0x0 obj_cooja/mtype595.a(timer.o)
 .data          0x0000000000228b80        0x0 obj_cooja/mtype595.a(rtimer.o)
 .data          0x0000000000228b80        0x0 obj_cooja/mtype595.a(neighbor-attr.o)
 .data.rel.local
                0x0000000000228b80       0x28 obj_cooja/mtype595.a(neighbor-attr.o)
 .data          0x0000000000228ba8        0x0 /usr/lib/gcc/x86_64-linux-gnu/5/crtendS.o
 .data          0x0000000000228ba8        0x0 /usr/lib/gcc/x86_64-linux-gnu/5/../../../x86_64-linux-gnu/crtn.o

.tm_clone_table
                0x0000000000228ba8        0x0
 .tm_clone_table
                0x0000000000228ba8        0x0 /usr/lib/gcc/x86_64-linux-gnu/5/crtbeginS.o
 .tm_clone_table
                0x0000000000228ba8        0x0 /usr/lib/gcc/x86_64-linux-gnu/5/crtendS.o

.data1
 *(.data1)
                0x0000000000228ba8                _edata = .
                [!provide]                        PROVIDE (edata = .)
                0x0000000000228ba8                . = .
                0x0000000000228ba8                __bss_start = .

.bss            0x0000000000228bc0     0x9330
 *(.dynbss)
 .dynbss        0x0000000000228bc0        0x0 /usr/lib/gcc/x86_64-linux-gnu/5/../../../x86_64-linux-gnu/crti.o
 *(.bss .bss.* .gnu.linkonce.b.*)
 .bss           0x0000000000228bc0        0x0 /usr/lib/gcc/x86_64-linux-gnu/5/../../../x86_64-linux-gnu/crti.o
 .bss           0x0000000000228bc0        0x1 /usr/lib/gcc/x86_64-linux-gnu/5/crtbeginS.o
 *fill*         0x0000000000228bc1        0xf 
 .bss           0x0000000000228bd0       0x21 udp-sender.co
 *fill*         0x0000000000228bf1        0xf 
 .bss           0x0000000000228c00     0x4040 obj_cooja/mtype595.o
 .bss           0x000000000022cc40       0x60 obj_cooja/collect-common.o
 .bss           0x000000000022cca0        0x0 obj_cooja/mtype595.a(rimeaddr.o)
 .bss           0x000000000022cca0       0x90 obj_cooja/mtype595.a(nullrdc.o)
 .bss           0x000000000022cd30        0x0 obj_cooja/mtype595.a(mac.o)
 .bss           0x000000000022cd30        0x2 obj_cooja/mtype595.a(framer-802154.o)
 *fill*         0x000000000022cd32        0xe 
 .bss           0x000000000022cd40      0x164 obj_cooja/mtype595.a(csma.o)
 *fill*         0x000000000022cea4       0x1c 
 .bss           0x000000000022cec0      0xa60 obj_cooja/mtype595.a(rpl-dag.o)
 .bss           0x000000000022d920       0xbc obj_cooja/mtype595.a(rpl-icmp6.o)
 *fill*         0x000000000022d9dc        0x4 
 .bss           0x000000000022d9e0       0xa0 obj_cooja/mtype595.a(rpl-timers.o)
 .bss           0x000000000022da80       0xec obj_cooja/mtype595.a(rpl-of-fuzzy.o)
 .bss           0x000000000022db6c        0x0 obj_cooja/mtype595.a(fuzzify.o)
 .bss           0x000000000022db6c        0x0 obj_cooja/mtype595.a(qos.o)
 .bss           0x000000000022db6c        0x0 obj_cooja/mtype595.a(quality.o)
 *fill*         0x000000000022db6c       0x14 
 .bss           0x000000000022db80      0x341 obj_cooja/mtype595.a(process.o)
                0x000000000022db80                process_list
                0x000000000022db88                process_current
 .bss           0x000000000022dec1        0x0 obj_cooja/mtype595.a(autostart.o)
 *fill*         0x000000000022dec1       0x1f 
 .bss           0x000000000022dee0      0x140 obj_cooja/mtype595.a(serial-line.o)
 .bss           0x000000000022e020        0x0 obj_cooja/mtype595.a(memb.o)
 .bss           0x000000000022e020        0x0 obj_cooja/mtype595.a(list.o)
 .bss           0x000000000022e020       0x10 obj_cooja/mtype595.a(etimer.o)
 .bss           0x000000000022e030        0x9 obj_cooja/mtype595.a(ctimer.o)
 .bss           0x000000000022e039        0x0 obj_cooja/mtype595.a(energest.o)
 .bss           0x000000000022e039        0x0 obj_cooja/mtype595.a(stimer.o)
 .bss           0x000000000022e039        0x0 obj_cooja/mtype595.a(random.o)
 .bss           0x000000000022e039        0x0 obj_cooja/mtype595.a(ringbuf.o)
 .bss           0x000000000022e039        0x0 obj_cooja/mtype595.a(netstack.o)
 .bss           0x000000000022e039        0x0 obj_cooja/mtype595.a(uip-debug.o)
 *fill*         0x000000000022e039        0x7 
 .bss           0x000000000022e040       0xe0 obj_cooja/mtype595.a(packetbuf.o)
 .bss           0x000000000022e120      0xdf0 obj_cooja/mtype595.a(queuebuf.o)
 .bss           0x000000000022ef10        0xe obj_cooja/mtype595.a(uip6.o)
                0x000000000022ef10                uip_ext_bitmap
                0x000000000022ef11                uip_ext_len
                0x000000000022ef12                uip_ext_opt_offset
 *fill*         0x000000000022ef1e        0x2 
 .bss           0x000000000022ef20       0xb5 obj_cooja/mtype595.a(tcpip.o)
 .bss           0x000000000022efd5        0x0 obj_cooja/mtype595.a(uip-udp-packet.)
 *fill*         0x000000000022efd5        0xb 
 .bss           0x000000000022efe0       0x10 obj_cooja/mtype595.a(uip-icmp6.o)
 .bss           0x000000000022eff0       0x28 obj_cooja/mtype595.a(uip-nd6.o)
 *fill*         0x000000000022f018        0x8 
 .bss           0x000000000022f020      0x2b0 obj_cooja/mtype595.a(uip-packetqueue)
 *fill*         0x000000000022f2d0       0x10 
 .bss           0x000000000022f2e0      0x158 obj_cooja/mtype595.a(sicslowpan.o)
 .bss           0x000000000022f438       0x18 obj_cooja/mtype595.a(neighbor-info.o)
 .bss           0x000000000022f450       0x50 obj_cooja/mtype595.a(uip-ds6.o)
 .bss           0x000000000022f4a0       0x20 obj_cooja/mtype595.a(collect-view.o)
 .bss           0x000000000022f4c0        0x0 obj_cooja/mtype595.a(collect-view-te)
 .bss           0x000000000022f4c0        0x1 obj_cooja/mtype595.a(simEnvChange.o)
                0x000000000022f4c0                simDontFallAsleep
 *fill*         0x000000000022f4c1        0x7 
 .bss           0x000000000022f4c8        0x8 obj_cooja/mtype595.a(cooja_mt.o)
 .bss           0x000000000022f4d0        0x8 obj_cooja/mtype595.a(cooja_mtarch.o)
 .bss           0x000000000022f4d8       0x18 obj_cooja/mtype595.a(rtimer-arch.o)
 .bss           0x000000000022f4f0        0x0 obj_cooja/mtype595.a(watchdog.o)
 .bss           0x000000000022f4f0        0x0 obj_cooja/mtype595.a(beep.o)
 .bss           0x000000000022f4f0       0x10 obj_cooja/mtype595.a(button-sensor.o)
 .bss           0x000000000022f500        0x0 obj_cooja/mtype595.a(leds-arch.o)
 .bss           0x000000000022f500        0x0 obj_cooja/mtype595.a(moteid.o)
 .bss           0x000000000022f500        0x1 obj_cooja/mtype595.a(pir-sensor.o)
                0x000000000022f500                simPirValue
 *fill*         0x000000000022f501        0x7 
 .bss           0x000000000022f508        0x8 obj_cooja/mtype595.a(rs232.o)
 .bss           0x000000000022f510        0x1 obj_cooja/mtype595.a(vib-sensor.o)
                0x000000000022f510                simVibValue
 .bss           0x000000000022f511        0x0 obj_cooja/mtype595.a(clock.o)
 *fill*         0x000000000022f511        0xf 
 .bss           0x000000000022f520      0x420 obj_cooja/mtype595.a(log.o)
 .bss           0x000000000022f940      0xfc0 obj_cooja/mtype595.a(cfs-cooja.o)
                0x000000000022f940                simCFSData
                0x00000000002308e0                simCFSChanged
                0x00000000002308e4                simCFSRead
                0x00000000002308e8                simCFSWritten
 .bss           0x0000000000230900       0x18 obj_cooja/mtype595.a(cooja-radio.o)
                0x0000000000230900                simReceiving
                0x0000000000230904                simInSize
                0x0000000000230908                simOutSize
 .bss           0x0000000000230918        0xc obj_cooja/mtype595.a(sensors.o)
 .bss           0x0000000000230924        0x2 obj_cooja/mtype595.a(leds.o)
 .bss           0x0000000000230926        0x0 obj_cooja/mtype595.a(rimestats.o)
 .bss           0x0000000000230926        0x0 obj_cooja/mtype595.a(frame802154.o)
 .bss           0x0000000000230926        0x0 obj_cooja/mtype595.a(rpl.o)
 .bss           0x0000000000230926        0x0 obj_cooja/mtype595.a(timer.o)
 *fill*         0x0000000000230926        0x2 
 .bss           0x0000000000230928        0x8 obj_cooja/mtype595.a(rtimer.o)
 *fill*         0x0000000000230930       0x10 
 .bss           0x0000000000230940      0x1a0 obj_cooja/mtype595.a(neighbor-attr.o)
 .bss           0x0000000000230ae0        0x0 /usr/lib/gcc/x86_64-linux-gnu/5/crtendS.o
 .bss           0x0000000000230ae0        0x0 /usr/lib/gcc/x86_64-linux-gnu/5/../../../x86_64-linux-gnu/crtn.o
 *(COMMON)
 COMMON         0x0000000000230ae0        0xc obj_cooja/mtype595.o
                0x0000000000230ae0                referenceVar
                0x0000000000230ae8                sensors_flags
 *fill*         0x0000000000230aec        0x4 
 COMMON         0x0000000000230af0        0x8 obj_cooja/mtype595.a(rimeaddr.o)
                0x0000000000230af0                rimeaddr_node_addr
 COMMON         0x0000000000230af8        0x8 obj_cooja/mtype595.a(rpl-of-fuzzy.o)
                0x0000000000230af8                list_metric
 COMMON         0x0000000000230b00        0x1 obj_cooja/mtype595.a(serial-line.o)
                0x0000000000230b00                serial_line_event_message
 *fill*         0x0000000000230b01       0x1f 
 COMMON         0x0000000000230b20       0x60 obj_cooja/mtype595.a(packetbuf.o)
                0x0000000000230b20                packetbuf_attrs
                0x0000000000230b60                packetbuf_addrs
 COMMON         0x0000000000230b80      0x438 obj_cooja/mtype595.a(uip6.o)
                0x0000000000230b80                uip_slen
                0x0000000000230b82                uip_acc32
                0x0000000000230ba0                uip_conns
                0x0000000000230c80                uip_lladdr
                0x0000000000230c88                uip_appdata
                0x0000000000230c90                uip_flags
                0x0000000000230ca0                uip_aligned_buf
                0x0000000000230d90                uip_listenports
                0x0000000000230da0                uip_len
                0x0000000000230da8                uip_sappdata
                0x0000000000230dc0                uip_udp_conns
                0x0000000000230fa0                uip_udp_conn
                0x0000000000230fa8                uip_next_hdr
                0x0000000000230fb0                uip_conn
 COMMON         0x0000000000230fb8        0x1 obj_cooja/mtype595.a(tcpip.o)
                0x0000000000230fb8                tcpip_event
 *fill*         0x0000000000230fb9        0x7 
 COMMON         0x0000000000230fc0       0x10 obj_cooja/mtype595.a(sicslowpan.o)
                0x0000000000230fc0                sicslowpan_mac
                0x0000000000230fc8                frag_sender
 *fill*         0x0000000000230fd0       0x10 
 COMMON         0x0000000000230fe0      0x4c0 obj_cooja/mtype595.a(uip-ds6.o)
                0x0000000000230fe0                uip_ds6_prefix_list
                0x0000000000231040                uip_ds6_defrt_list
                0x00000000002310a0                uip_ds6_timer_periodic
                0x00000000002310c0                uip_ds6_if
                0x0000000000231220                uip_ds6_timer_ra
                0x0000000000231240                uip_ds6_routing_table
                0x0000000000231340                uip_ds6_nbr_cache
 COMMON         0x00000000002314a0       0x10 obj_cooja/mtype595.a(simEnvChange.o)
                0x00000000002314a0                simEtimerPending
                0x00000000002314a4                simProcessRunValue
                0x00000000002314a8                simNextExpirationTime
 COMMON         0x00000000002314b0        0x1 obj_cooja/mtype595.a(beep.o)
                0x00000000002314b0                simBeeped
 COMMON         0x00000000002314b1        0x3 obj_cooja/mtype595.a(button-sensor.o)
                0x00000000002314b1                simButtonIsActive
                0x00000000002314b2                simButtonIsDown
                0x00000000002314b3                simButtonChanged
 COMMON         0x00000000002314b4        0x1 obj_cooja/mtype595.a(leds-arch.o)
                0x00000000002314b4                simLedsValue
 *fill*         0x00000000002314b5        0x3 
 COMMON         0x00000000002314b8        0xc obj_cooja/mtype595.a(moteid.o)
                0x00000000002314b8                simRandomSeed
                0x00000000002314bc                simMoteIDChanged
                0x00000000002314c0                simMoteID
 COMMON         0x00000000002314c4        0x2 obj_cooja/mtype595.a(pir-sensor.o)
                0x00000000002314c4                simPirIsActive
                0x00000000002314c5                simPirChanged
 *fill*         0x00000000002314c6       0x1a 
 COMMON         0x00000000002314e0      0x420 obj_cooja/mtype595.a(rs232.o)
                0x00000000002314e0                simSerialReceivingFlag
                0x00000000002314e4                simSerialReceivingLength
                0x0000000000231500                simSerialReceivingData
 COMMON         0x0000000000231900        0x2 obj_cooja/mtype595.a(vib-sensor.o)
                0x0000000000231900                simVibChanged
                0x0000000000231901                simVibIsActive
 *fill*         0x0000000000231902        0x6 
 COMMON         0x0000000000231908        0x8 obj_cooja/mtype595.a(clock.o)
                0x0000000000231908                simCurrentTime
 *fill*         0x0000000000231910       0x10 
 COMMON         0x0000000000231920      0x420 obj_cooja/mtype595.a(log.o)
                0x0000000000231920                simLoggedLength
                0x0000000000231924                simLoggedFlag
                0x0000000000231940                simLoggedData
 COMMON         0x0000000000231d40      0x100 obj_cooja/mtype595.a(cooja-radio.o)
                0x0000000000231d40                simOutDataBuffer
                0x0000000000231dc0                simInDataBuffer
 COMMON         0x0000000000231e40        0x1 obj_cooja/mtype595.a(sensors.o)
                0x0000000000231e40                sensors_event
 *fill*         0x0000000000231e41       0x1f 
 COMMON         0x0000000000231e60       0x90 obj_cooja/mtype595.a(rimestats.o)
                0x0000000000231e60                rimestats
                0x0000000000231ef0                . = ALIGN ((. != 0x0)?0x8:0x1)

.lbss
 *(.dynlbss)
 *(.lbss .lbss.* .gnu.linkonce.lb.*)
 *(LARGE_COMMON)
                0x0000000000231ef0                . = ALIGN (0x8)
                0x0000000000231ef0                . = SEGMENT_START ("ldata-segment", .)

.lrodata
 *(.lrodata .lrodata.* .gnu.linkonce.lr.*)

.ldata          0x0000000000631ef0        0x0
 *(.ldata .ldata.* .gnu.linkonce.l.*)
                0x0000000000631ef0                . = ALIGN ((. != 0x0)?0x8:0x1)
                0x0000000000631ef0                . = ALIGN (0x8)
                0x0000000000631ef0                _end = .
                [!provide]                        PROVIDE (end = .)
                0x0000000000631ef0                . = DATA_SEGMENT_END (.)

.stab
 *(.stab)

.stabstr
 *(.stabstr)

.stab.excl
 *(.stab.excl)

.stab.exclstr
 *(.stab.exclstr)

.stab.index
 *(.stab.index)

.stab.indexstr
 *(.stab.indexstr)

.comment        0x0000000000000000       0x58
 *(.comment)
 .comment       0x0000000000000000       0x2d /usr/lib/gcc/x86_64-linux-gnu/5/crtbeginS.o
                                         0x2e (size before relaxing)
 .comment       0x000000000000002d       0x2e udp-sender.co
 .comment       0x000000000000002d       0x2e obj_cooja/mtype595.o
 .comment       0x000000000000002d       0x2b obj_cooja/collect-common.o
                                         0x2c (size before relaxing)
 .comment       0x0000000000000058       0x2c obj_cooja/mtype595.a(rimeaddr.o)
 .comment       0x0000000000000058       0x2c obj_cooja/mtype595.a(nullrdc.o)
 .comment       0x0000000000000058       0x2c obj_cooja/mtype595.a(mac.o)
 .comment       0x0000000000000058       0x2c obj_cooja/mtype595.a(framer-802154.o)
 .comment       0x0000000000000058       0x2c obj_cooja/mtype595.a(csma.o)
 .comment       0x0000000000000058       0x2c obj_cooja/mtype595.a(rpl-dag.o)
 .comment       0x0000000000000058       0x2c obj_cooja/mtype595.a(rpl-icmp6.o)
 .comment       0x0000000000000058       0x2c obj_cooja/mtype595.a(rpl-timers.o)
 .comment       0x0000000000000058       0x2c obj_cooja/mtype595.a(rpl-of-fuzzy.o)
 .comment       0x0000000000000058       0x2c obj_cooja/mtype595.a(fuzzify.o)
 .comment       0x0000000000000058       0x2c obj_cooja/mtype595.a(qos.o)
 .comment       0x0000000000000058       0x2c obj_cooja/mtype595.a(quality.o)
 .comment       0x0000000000000058       0x2c obj_cooja/mtype595.a(process.o)
 .comment       0x0000000000000058       0x2c obj_cooja/mtype595.a(autostart.o)
 .comment       0x0000000000000058       0x2c obj_cooja/mtype595.a(serial-line.o)
 .comment       0x0000000000000058       0x2c obj_cooja/mtype595.a(memb.o)
 .comment       0x0000000000000058       0x2c obj_cooja/mtype595.a(list.o)
 .comment       0x0000000000000058       0x2c obj_cooja/mtype595.a(etimer.o)
 .comment       0x0000000000000058       0x2c obj_cooja/mtype595.a(ctimer.o)
 .comment       0x0000000000000058       0x2c obj_cooja/mtype595.a(energest.o)
 .comment       0x0000000000000058       0x2c obj_cooja/mtype595.a(stimer.o)
 .comment       0x0000000000000058       0x2c obj_cooja/mtype595.a(random.o)
 .comment       0x0000000000000058       0x2c obj_cooja/mtype595.a(ringbuf.o)
 .comment       0x0000000000000058       0x2c obj_cooja/mtype595.a(netstack.o)
 .comment       0x0000000000000058       0x2c obj_cooja/mtype595.a(uip-debug.o)
 .comment       0x0000000000000058       0x2c obj_cooja/mtype595.a(packetbuf.o)
 .comment       0x0000000000000058       0x2c obj_cooja/mtype595.a(queuebuf.o)
 .comment       0x0000000000000058       0x2c obj_cooja/mtype595.a(uip6.o)
 .comment       0x0000000000000058       0x2c obj_cooja/mtype595.a(tcpip.o)
 .comment       0x0000000000000058       0x2c obj_cooja/mtype595.a(uip-udp-packet.)
 .comment       0x0000000000000058       0x2c obj_cooja/mtype595.a(uip-icmp6.o)
 .comment       0x0000000000000058       0x2c obj_cooja/mtype595.a(uip-nd6.o)
 .comment       0x0000000000000058       0x2c obj_cooja/mtype595.a(uip-packetqueue)
 .comment       0x0000000000000058       0x2c obj_cooja/mtype595.a(sicslowpan.o)
 .comment       0x0000000000000058       0x2c obj_cooja/mtype595.a(neighbor-info.o)
 .comment       0x0000000000000058       0x2c obj_cooja/mtype595.a(uip-ds6.o)
 .comment       0x0000000000000058       0x2c obj_cooja/mtype595.a(collect-view.o)
 .comment       0x0000000000000058       0x2c obj_cooja/mtype595.a(collect-view-te)
 .comment       0x0000000000000058       0x2c obj_cooja/mtype595.a(simEnvChange.o)
 .comment       0x0000000000000058       0x2c obj_cooja/mtype595.a(cooja_mt.o)
 .comment       0x0000000000000058       0x2c obj_cooja/mtype595.a(cooja_mtarch.o)
 .comment       0x0000000000000058       0x2c obj_cooja/mtype595.a(rtimer-arch.o)
 .comment       0x0000000000000058       0x2c obj_cooja/mtype595.a(watchdog.o)
 .comment       0x0000000000000058       0x2c obj_cooja/mtype595.a(beep.o)
 .comment       0x0000000000000058       0x2c obj_cooja/mtype595.a(button-sensor.o)
 .comment       0x0000000000000058       0x2c obj_cooja/mtype595.a(leds-arch.o)
 .comment       0x0000000000000058       0x2c obj_cooja/mtype595.a(moteid.o)
 .comment       0x0000000000000058       0x2c obj_cooja/mtype595.a(pir-sensor.o)
 .comment       0x0000000000000058       0x2c obj_cooja/mtype595.a(rs232.o)
 .comment       0x0000000000000058       0x2c obj_cooja/mtype595.a(vib-sensor.o)
 .comment       0x0000000000000058       0x2c obj_cooja/mtype595.a(clock.o)
 .comment       0x0000000000000058       0x2c obj_cooja/mtype595.a(log.o)
 .comment       0x0000000000000058       0x2c obj_cooja/mtype595.a(cfs-cooja.o)
 .comment       0x0000000000000058       0x2c obj_cooja/mtype595.a(cooja-radio.o)
 .comment       0x0000000000000058       0x2c obj_cooja/mtype595.a(sensors.o)
 .comment       0x0000000000000058       0x2c obj_cooja/mtype595.a(leds.o)
 .comment       0x0000000000000058       0x2c obj_cooja/mtype595.a(rimestats.o)
 .comment       0x0000000000000058       0x2c obj_cooja/mtype595.a(frame802154.o)
 .comment       0x0000000000000058       0x2c obj_cooja/mtype595.a(rpl.o)
 .comment       0x0000000000000058       0x2c obj_cooja/mtype595.a(timer.o)
 .comment       0x0000000000000058       0x2c obj_cooja/mtype595.a(rtimer.o)
 .comment       0x0000000000000058       0x2c obj_cooja/mtype595.a(neighbor-attr.o)
 .comment       0x0000000000000058       0x2e /usr/lib/gcc/x86_64-linux-gnu/5/crtendS.o

.debug
 *(.debug)

.line
 *(.line)

.debug_srcinfo
 *(.debug_srcinfo)

.debug_sfnames
 *(.debug_sfnames)

.debug_aranges  0x0000000000000000      0xc20
 *(.debug_aranges)
 .debug_aranges
                0x0000000000000000       0x30 udp-sender.co
 .debug_aranges
                0x0000000000000030       0x30 obj_cooja/mtype595.o
 .debug_aranges
                0x0000000000000060       0x30 obj_cooja/collect-common.o
 .debug_aranges
                0x0000000000000090       0x30 obj_cooja/mtype595.a(rimeaddr.o)
 .debug_aranges
                0x00000000000000c0       0x30 obj_cooja/mtype595.a(nullrdc.o)
 .debug_aranges
                0x00000000000000f0       0x30 obj_cooja/mtype595.a(mac.o)
 .debug_aranges
                0x0000000000000120       0x30 obj_cooja/mtype595.a(framer-802154.o)
 .debug_aranges
                0x0000000000000150       0x30 obj_cooja/mtype595.a(csma.o)
 .debug_aranges
                0x0000000000000180       0x30 obj_cooja/mtype595.a(rpl-dag.o)
 .debug_aranges
                0x00000000000001b0       0x30 obj_cooja/mtype595.a(rpl-icmp6.o)
 .debug_aranges
                0x00000000000001e0       0x30 obj_cooja/mtype595.a(rpl-timers.o)
 .debug_aranges
                0x0000000000000210       0x30 obj_cooja/mtype595.a(rpl-of-fuzzy.o)
 .debug_aranges
                0x0000000000000240       0x30 obj_cooja/mtype595.a(fuzzify.o)
 .debug_aranges
                0x0000000000000270       0x30 obj_cooja/mtype595.a(qos.o)
 .debug_aranges
                0x00000000000002a0       0x30 obj_cooja/mtype595.a(quality.o)
 .debug_aranges
                0x00000000000002d0       0x30 obj_cooja/mtype595.a(process.o)
 .debug_aranges
                0x0000000000000300       0x30 obj_cooja/mtype595.a(autostart.o)
 .debug_aranges
                0x0000000000000330       0x30 obj_cooja/mtype595.a(serial-line.o)
 .debug_aranges
                0x0000000000000360       0x30 obj_cooja/mtype595.a(memb.o)
 .debug_aranges
                0x0000000000000390       0x30 obj_cooja/mtype595.a(list.o)
 .debug_aranges
                0x00000000000003c0       0x30 obj_cooja/mtype595.a(etimer.o)
 .debug_aranges
                0x00000000000003f0       0x30 obj_cooja/mtype595.a(ctimer.o)
 .debug_aranges
                0x0000000000000420       0x30 obj_cooja/mtype595.a(energest.o)
 .debug_aranges
                0x0000000000000450       0x30 obj_cooja/mtype595.a(stimer.o)
 .debug_aranges
                0x0000000000000480       0x30 obj_cooja/mtype595.a(random.o)
 .debug_aranges
                0x00000000000004b0       0x30 obj_cooja/mtype595.a(ringbuf.o)
 .debug_aranges
                0x00000000000004e0       0x30 obj_cooja/mtype595.a(netstack.o)
 .debug_aranges
                0x0000000000000510       0x30 obj_cooja/mtype595.a(uip-debug.o)
 .debug_aranges
                0x0000000000000540       0x30 obj_cooja/mtype595.a(packetbuf.o)
 .debug_aranges
                0x0000000000000570       0x30 obj_cooja/mtype595.a(queuebuf.o)
 .debug_aranges
                0x00000000000005a0       0x30 obj_cooja/mtype595.a(uip6.o)
 .debug_aranges
                0x00000000000005d0       0x30 obj_cooja/mtype595.a(tcpip.o)
 .debug_aranges
                0x0000000000000600       0x30 obj_cooja/mtype595.a(uip-udp-packet.)
 .debug_aranges
                0x0000000000000630       0x30 obj_cooja/mtype595.a(uip-icmp6.o)
 .debug_aranges
                0x0000000000000660       0x30 obj_cooja/mtype595.a(uip-nd6.o)
 .debug_aranges
                0x0000000000000690       0x30 obj_cooja/mtype595.a(uip-packetqueue)
 .debug_aranges
                0x00000000000006c0       0x30 obj_cooja/mtype595.a(sicslowpan.o)
 .debug_aranges
                0x00000000000006f0       0x30 obj_cooja/mtype595.a(neighbor-info.o)
 .debug_aranges
                0x0000000000000720       0x30 obj_cooja/mtype595.a(uip-ds6.o)
 .debug_aranges
                0x0000000000000750       0x30 obj_cooja/mtype595.a(collect-view.o)
 .debug_aranges
                0x0000000000000780       0x30 obj_cooja/mtype595.a(collect-view-te)
 .debug_aranges
                0x00000000000007b0       0x30 obj_cooja/mtype595.a(simEnvChange.o)
 .debug_aranges
                0x00000000000007e0       0x30 obj_cooja/mtype595.a(cooja_mt.o)
 .debug_aranges
                0x0000000000000810       0x30 obj_cooja/mtype595.a(cooja_mtarch.o)
 .debug_aranges
                0x0000000000000840       0x30 obj_cooja/mtype595.a(rtimer-arch.o)
 .debug_aranges
                0x0000000000000870       0x30 obj_cooja/mtype595.a(watchdog.o)
 .debug_aranges
                0x00000000000008a0       0x30 obj_cooja/mtype595.a(beep.o)
 .debug_aranges
                0x00000000000008d0       0x30 obj_cooja/mtype595.a(button-sensor.o)
 .debug_aranges
                0x0000000000000900       0x30 obj_cooja/mtype595.a(leds-arch.o)
 .debug_aranges
                0x0000000000000930       0x30 obj_cooja/mtype595.a(moteid.o)
 .debug_aranges
                0x0000000000000960       0x30 obj_cooja/mtype595.a(pir-sensor.o)
 .debug_aranges
                0x0000000000000990       0x30 obj_cooja/mtype595.a(rs232.o)
 .debug_aranges
                0x00000000000009c0       0x30 obj_cooja/mtype595.a(vib-sensor.o)
 .debug_aranges
                0x00000000000009f0       0x30 obj_cooja/mtype595.a(clock.o)
 .debug_aranges
                0x0000000000000a20       0x30 obj_cooja/mtype595.a(log.o)
 .debug_aranges
                0x0000000000000a50       0x30 obj_cooja/mtype595.a(cfs-cooja.o)
 .debug_aranges
                0x0000000000000a80       0x30 obj_cooja/mtype595.a(cooja-radio.o)
 .debug_aranges
                0x0000000000000ab0       0x30 obj_cooja/mtype595.a(sensors.o)
 .debug_aranges
                0x0000000000000ae0       0x30 obj_cooja/mtype595.a(leds.o)
 .debug_aranges
                0x0000000000000b10       0x20 obj_cooja/mtype595.a(rimestats.o)
 .debug_aranges
                0x0000000000000b30       0x30 obj_cooja/mtype595.a(frame802154.o)
 .debug_aranges
                0x0000000000000b60       0x30 obj_cooja/mtype595.a(rpl.o)
 .debug_aranges
                0x0000000000000b90       0x30 obj_cooja/mtype595.a(timer.o)
 .debug_aranges
                0x0000000000000bc0       0x30 obj_cooja/mtype595.a(rtimer.o)
 .debug_aranges
                0x0000000000000bf0       0x30 obj_cooja/mtype595.a(neighbor-attr.o)

.debug_pubnames
 *(.debug_pubnames)

.debug_info     0x0000000000000000    0x241e3
 *(.debug_info .gnu.linkonce.wi.*)
 .debug_info    0x0000000000000000      0xfa6 udp-sender.co
 .debug_info    0x0000000000000fa6     0x37ec obj_cooja/mtype595.o
 .debug_info    0x0000000000004792      0xae2 obj_cooja/collect-common.o
 .debug_info    0x0000000000005274      0x182 obj_cooja/mtype595.a(rimeaddr.o)
 .debug_info    0x00000000000053f6      0xabe obj_cooja/mtype595.a(nullrdc.o)
 .debug_info    0x0000000000005eb4      0x119 obj_cooja/mtype595.a(mac.o)
 .debug_info    0x0000000000005fcd      0x610 obj_cooja/mtype595.a(framer-802154.o)
 .debug_info    0x00000000000065dd      0xb6b obj_cooja/mtype595.a(csma.o)
 .debug_info    0x0000000000007148     0x1c81 obj_cooja/mtype595.a(rpl-dag.o)
 .debug_info    0x0000000000008dc9     0x1d0d obj_cooja/mtype595.a(rpl-icmp6.o)
 .debug_info    0x000000000000aad6     0x12d9 obj_cooja/mtype595.a(rpl-timers.o)
 .debug_info    0x000000000000bdaf     0x19ea obj_cooja/mtype595.a(rpl-of-fuzzy.o)
 .debug_info    0x000000000000d799      0x389 obj_cooja/mtype595.a(fuzzify.o)
 .debug_info    0x000000000000db22      0x1b3 obj_cooja/mtype595.a(qos.o)
 .debug_info    0x000000000000dcd5      0x1cd obj_cooja/mtype595.a(quality.o)
 .debug_info    0x000000000000dea2      0x7e3 obj_cooja/mtype595.a(process.o)
 .debug_info    0x000000000000e685      0x1e2 obj_cooja/mtype595.a(autostart.o)
 .debug_info    0x000000000000e867      0x355 obj_cooja/mtype595.a(serial-line.o)
 .debug_info    0x000000000000ebbc      0x2b6 obj_cooja/mtype595.a(memb.o)
 .debug_info    0x000000000000ee72      0x355 obj_cooja/mtype595.a(list.o)
 .debug_info    0x000000000000f1c7      0x4f9 obj_cooja/mtype595.a(etimer.o)
 .debug_info    0x000000000000f6c0      0x4b6 obj_cooja/mtype595.a(ctimer.o)
 .debug_info    0x000000000000fb76      0x105 obj_cooja/mtype595.a(energest.o)
 .debug_info    0x000000000000fc7b      0x1aa obj_cooja/mtype595.a(stimer.o)
 .debug_info    0x000000000000fe25       0xc0 obj_cooja/mtype595.a(random.o)
 .debug_info    0x000000000000fee5      0x1de obj_cooja/mtype595.a(ringbuf.o)
 .debug_info    0x00000000000100c3      0x37d obj_cooja/mtype595.a(netstack.o)
 .debug_info    0x0000000000010440      0x85e obj_cooja/mtype595.a(uip-debug.o)
 .debug_info    0x0000000000010c9e     0x120d obj_cooja/mtype595.a(packetbuf.o)
 .debug_info    0x0000000000011eab     0x1181 obj_cooja/mtype595.a(queuebuf.o)
 .debug_info    0x000000000001302c     0x11c5 obj_cooja/mtype595.a(uip6.o)
 .debug_info    0x00000000000141f1     0x1744 obj_cooja/mtype595.a(tcpip.o)
 .debug_info    0x0000000000015935      0x61c obj_cooja/mtype595.a(uip-udp-packet.)
 .debug_info    0x0000000000015f51      0x9b2 obj_cooja/mtype595.a(uip-icmp6.o)
 .debug_info    0x0000000000016903      0xcfb obj_cooja/mtype595.a(uip-nd6.o)
 .debug_info    0x00000000000175fe      0xb02 obj_cooja/mtype595.a(uip-packetqueue)
 .debug_info    0x0000000000018100     0x18c5 obj_cooja/mtype595.a(sicslowpan.o)
 .debug_info    0x00000000000199c5      0xdcf obj_cooja/mtype595.a(neighbor-info.o)
 .debug_info    0x000000000001a794     0x179a obj_cooja/mtype595.a(uip-ds6.o)
 .debug_info    0x000000000001bf2e      0x65e obj_cooja/mtype595.a(collect-view.o)
 .debug_info    0x000000000001c58c      0x32f obj_cooja/mtype595.a(collect-view-te)
 .debug_info    0x000000000001c8bb      0x524 obj_cooja/mtype595.a(simEnvChange.o)
 .debug_info    0x000000000001cddf      0x2ff obj_cooja/mtype595.a(cooja_mt.o)
 .debug_info    0x000000000001d0de      0x6b0 obj_cooja/mtype595.a(cooja_mtarch.o)
 .debug_info    0x000000000001d78e      0x335 obj_cooja/mtype595.a(rtimer-arch.o)
 .debug_info    0x000000000001dac3       0xab obj_cooja/mtype595.a(watchdog.o)
 .debug_info    0x000000000001db6e      0x38e obj_cooja/mtype595.a(beep.o)
 .debug_info    0x000000000001defc      0x3ee obj_cooja/mtype595.a(button-sensor.o)
 .debug_info    0x000000000001e2ea      0x2ac obj_cooja/mtype595.a(leds-arch.o)
 .debug_info    0x000000000001e596      0x27b obj_cooja/mtype595.a(moteid.o)
 .debug_info    0x000000000001e811      0x3b5 obj_cooja/mtype595.a(pir-sensor.o)
 .debug_info    0x000000000001ebc6      0x66e obj_cooja/mtype595.a(rs232.o)
 .debug_info    0x000000000001f234      0x3b5 obj_cooja/mtype595.a(vib-sensor.o)
 .debug_info    0x000000000001f5e9      0x2c5 obj_cooja/mtype595.a(clock.o)
 .debug_info    0x000000000001f8ae      0x729 obj_cooja/mtype595.a(log.o)
 .debug_info    0x000000000001ffd7      0x57f obj_cooja/mtype595.a(cfs-cooja.o)
 .debug_info    0x0000000000020556      0xd6e obj_cooja/mtype595.a(cooja-radio.o)
 .debug_info    0x00000000000212c4      0x3f9 obj_cooja/mtype595.a(sensors.o)
 .debug_info    0x00000000000216bd      0x1ed obj_cooja/mtype595.a(leds.o)
 .debug_info    0x00000000000218aa      0x11d obj_cooja/mtype595.a(rimestats.o)
 .debug_info    0x00000000000219c7      0x473 obj_cooja/mtype595.a(frame802154.o)
 .debug_info    0x0000000000021e3a     0x154d obj_cooja/mtype595.a(rpl.o)
 .debug_info    0x0000000000023387      0x195 obj_cooja/mtype595.a(timer.o)
 .debug_info    0x000000000002351c      0x2d3 obj_cooja/mtype595.a(rtimer.o)
 .debug_info    0x00000000000237ef      0x9f4 obj_cooja/mtype595.a(neighbor-attr.o)

.debug_abbrev   0x0000000000000000     0x72fc
 *(.debug_abbrev)
 .debug_abbrev  0x0000000000000000      0x26c udp-sender.co
 .debug_abbrev  0x000000000000026c      0x2b7 obj_cooja/mtype595.o
 .debug_abbrev  0x0000000000000523      0x254 obj_cooja/collect-common.o
 .debug_abbrev  0x0000000000000777       0xfd obj_cooja/mtype595.a(rimeaddr.o)
 .debug_abbrev  0x0000000000000874      0x2b2 obj_cooja/mtype595.a(nullrdc.o)
 .debug_abbrev  0x0000000000000b26       0xa7 obj_cooja/mtype595.a(mac.o)
 .debug_abbrev  0x0000000000000bcd      0x209 obj_cooja/mtype595.a(framer-802154.o)
 .debug_abbrev  0x0000000000000dd6      0x2f2 obj_cooja/mtype595.a(csma.o)
 .debug_abbrev  0x00000000000010c8      0x311 obj_cooja/mtype595.a(rpl-dag.o)
 .debug_abbrev  0x00000000000013d9      0x35d obj_cooja/mtype595.a(rpl-icmp6.o)
 .debug_abbrev  0x0000000000001736      0x2b4 obj_cooja/mtype595.a(rpl-timers.o)
 .debug_abbrev  0x00000000000019ea      0x2d7 obj_cooja/mtype595.a(rpl-of-fuzzy.o)
 .debug_abbrev  0x0000000000001cc1       0xab obj_cooja/mtype595.a(fuzzify.o)
 .debug_abbrev  0x0000000000001d6c       0x8b obj_cooja/mtype595.a(qos.o)
 .debug_abbrev  0x0000000000001df7       0x9a obj_cooja/mtype595.a(quality.o)
 .debug_abbrev  0x0000000000001e91      0x27b obj_cooja/mtype595.a(process.o)
 .debug_abbrev  0x000000000000210c      0x12b obj_cooja/mtype595.a(autostart.o)
 .debug_abbrev  0x0000000000002237      0x1a7 obj_cooja/mtype595.a(serial-line.o)
 .debug_abbrev  0x00000000000023de      0x15a obj_cooja/mtype595.a(memb.o)
 .debug_abbrev  0x0000000000002538      0x143 obj_cooja/mtype595.a(list.o)
 .debug_abbrev  0x000000000000267b      0x21b obj_cooja/mtype595.a(etimer.o)
 .debug_abbrev  0x0000000000002896      0x1be obj_cooja/mtype595.a(ctimer.o)
 .debug_abbrev  0x0000000000002a54       0x94 obj_cooja/mtype595.a(energest.o)
 .debug_abbrev  0x0000000000002ae8       0xd7 obj_cooja/mtype595.a(stimer.o)
 .debug_abbrev  0x0000000000002bbf       0x6b obj_cooja/mtype595.a(random.o)
 .debug_abbrev  0x0000000000002c2a       0xbf obj_cooja/mtype595.a(ringbuf.o)
 .debug_abbrev  0x0000000000002ce9       0xd4 obj_cooja/mtype595.a(netstack.o)
 .debug_abbrev  0x0000000000002dbd      0x191 obj_cooja/mtype595.a(uip-debug.o)
 .debug_abbrev  0x0000000000002f4e      0x2ea obj_cooja/mtype595.a(packetbuf.o)
 .debug_abbrev  0x0000000000003238      0x257 obj_cooja/mtype595.a(queuebuf.o)
 .debug_abbrev  0x000000000000348f      0x315 obj_cooja/mtype595.a(uip6.o)
 .debug_abbrev  0x00000000000037a4      0x359 obj_cooja/mtype595.a(tcpip.o)
 .debug_abbrev  0x0000000000003afd      0x1a9 obj_cooja/mtype595.a(uip-udp-packet.)
 .debug_abbrev  0x0000000000003ca6      0x1a4 obj_cooja/mtype595.a(uip-icmp6.o)
 .debug_abbrev  0x0000000000003e4a      0x235 obj_cooja/mtype595.a(uip-nd6.o)
 .debug_abbrev  0x000000000000407f      0x23e obj_cooja/mtype595.a(uip-packetqueue)
 .debug_abbrev  0x00000000000042bd      0x2dc obj_cooja/mtype595.a(sicslowpan.o)
 .debug_abbrev  0x0000000000004599      0x25b obj_cooja/mtype595.a(neighbor-info.o)
 .debug_abbrev  0x00000000000047f4      0x2ca obj_cooja/mtype595.a(uip-ds6.o)
 .debug_abbrev  0x0000000000004abe      0x1bd obj_cooja/mtype595.a(collect-view.o)
 .debug_abbrev  0x0000000000004c7b      0x16c obj_cooja/mtype595.a(collect-view-te)
 .debug_abbrev  0x0000000000004de7      0x167 obj_cooja/mtype595.a(simEnvChange.o)
 .debug_abbrev  0x0000000000004f4e      0x15b obj_cooja/mtype595.a(cooja_mt.o)
 .debug_abbrev  0x00000000000050a9      0x1d9 obj_cooja/mtype595.a(cooja_mtarch.o)
 .debug_abbrev  0x0000000000005282      0x18d obj_cooja/mtype595.a(rtimer-arch.o)
 .debug_abbrev  0x000000000000540f       0x2c obj_cooja/mtype595.a(watchdog.o)
 .debug_abbrev  0x000000000000543b      0x18f obj_cooja/mtype595.a(beep.o)
 .debug_abbrev  0x00000000000055ca      0x1c1 obj_cooja/mtype595.a(button-sensor.o)
 .debug_abbrev  0x000000000000578b      0x182 obj_cooja/mtype595.a(leds-arch.o)
 .debug_abbrev  0x000000000000590d      0x14a obj_cooja/mtype595.a(moteid.o)
 .debug_abbrev  0x0000000000005a57      0x19a obj_cooja/mtype595.a(pir-sensor.o)
 .debug_abbrev  0x0000000000005bf1      0x203 obj_cooja/mtype595.a(rs232.o)
 .debug_abbrev  0x0000000000005df4      0x19a obj_cooja/mtype595.a(vib-sensor.o)
 .debug_abbrev  0x0000000000005f8e      0x18f obj_cooja/mtype595.a(clock.o)
 .debug_abbrev  0x000000000000611d      0x1ff obj_cooja/mtype595.a(log.o)
 .debug_abbrev  0x000000000000631c      0x1f6 obj_cooja/mtype595.a(cfs-cooja.o)
 .debug_abbrev  0x0000000000006512      0x2b4 obj_cooja/mtype595.a(cooja-radio.o)
 .debug_abbrev  0x00000000000067c6      0x1cd obj_cooja/mtype595.a(sensors.o)
 .debug_abbrev  0x0000000000006993       0xb9 obj_cooja/mtype595.a(leds.o)
 .debug_abbrev  0x0000000000006a4c       0x59 obj_cooja/mtype595.a(rimestats.o)
 .debug_abbrev  0x0000000000006aa5      0x146 obj_cooja/mtype595.a(frame802154.o)
 .debug_abbrev  0x0000000000006beb      0x24e obj_cooja/mtype595.a(rpl.o)
 .debug_abbrev  0x0000000000006e39       0xf3 obj_cooja/mtype595.a(timer.o)
 .debug_abbrev  0x0000000000006f2c      0x1a6 obj_cooja/mtype595.a(rtimer.o)
 .debug_abbrev  0x00000000000070d2      0x22a obj_cooja/mtype595.a(neighbor-attr.o)

.debug_line     0x0000000000000000     0x9536
 *(.debug_line .debug_line.* .debug_line_end)
 .debug_line    0x0000000000000000      0x2e8 udp-sender.co
 .debug_line    0x00000000000002e8      0x4db obj_cooja/mtype595.o
 .debug_line    0x00000000000007c3      0x316 obj_cooja/collect-common.o
 .debug_line    0x0000000000000ad9       0x86 obj_cooja/mtype595.a(rimeaddr.o)
 .debug_line    0x0000000000000b5f      0x2bd obj_cooja/mtype595.a(nullrdc.o)
 .debug_line    0x0000000000000e1c       0x7d obj_cooja/mtype595.a(mac.o)
 .debug_line    0x0000000000000e99      0x1ca obj_cooja/mtype595.a(framer-802154.o)
 .debug_line    0x0000000000001063      0x2a8 obj_cooja/mtype595.a(csma.o)
 .debug_line    0x000000000000130b      0x5af obj_cooja/mtype595.a(rpl-dag.o)
 .debug_line    0x00000000000018ba      0x5ac obj_cooja/mtype595.a(rpl-icmp6.o)
 .debug_line    0x0000000000001e66      0x2ed obj_cooja/mtype595.a(rpl-timers.o)
 .debug_line    0x0000000000002153      0x441 obj_cooja/mtype595.a(rpl-of-fuzzy.o)
 .debug_line    0x0000000000002594      0x1c3 obj_cooja/mtype595.a(fuzzify.o)
 .debug_line    0x0000000000002757      0x3fb obj_cooja/mtype595.a(qos.o)
 .debug_line    0x0000000000002b52      0x63a obj_cooja/mtype595.a(quality.o)
 .debug_line    0x000000000000318c      0x244 obj_cooja/mtype595.a(process.o)
 .debug_line    0x00000000000033d0       0xc4 obj_cooja/mtype595.a(autostart.o)
 .debug_line    0x0000000000003494      0x18e obj_cooja/mtype595.a(serial-line.o)
 .debug_line    0x0000000000003622      0x11d obj_cooja/mtype595.a(memb.o)
 .debug_line    0x000000000000373f      0x11b obj_cooja/mtype595.a(list.o)
 .debug_line    0x000000000000385a      0x1bc obj_cooja/mtype595.a(etimer.o)
 .debug_line    0x0000000000003a16      0x1a2 obj_cooja/mtype595.a(ctimer.o)
 .debug_line    0x0000000000003bb8       0x58 obj_cooja/mtype595.a(energest.o)
 .debug_line    0x0000000000003c10       0x90 obj_cooja/mtype595.a(stimer.o)
 .debug_line    0x0000000000003ca0       0x53 obj_cooja/mtype595.a(random.o)
 .debug_line    0x0000000000003cf3       0xd8 obj_cooja/mtype595.a(ringbuf.o)
 .debug_line    0x0000000000003dcb       0xcc obj_cooja/mtype595.a(netstack.o)
 .debug_line    0x0000000000003e97      0x1e0 obj_cooja/mtype595.a(uip-debug.o)
 .debug_line    0x0000000000004077      0x2fc obj_cooja/mtype595.a(packetbuf.o)
 .debug_line    0x0000000000004373      0x2af obj_cooja/mtype595.a(queuebuf.o)
 .debug_line    0x0000000000004622      0x9ac obj_cooja/mtype595.a(uip6.o)
 .debug_line    0x0000000000004fce      0x4a3 obj_cooja/mtype595.a(tcpip.o)
 .debug_line    0x0000000000005471      0x158 obj_cooja/mtype595.a(uip-udp-packet.)
 .debug_line    0x00000000000055c9      0x233 obj_cooja/mtype595.a(uip-icmp6.o)
 .debug_line    0x00000000000057fc      0x3e4 obj_cooja/mtype595.a(uip-nd6.o)
 .debug_line    0x0000000000005be0      0x236 obj_cooja/mtype595.a(uip-packetqueue)
 .debug_line    0x0000000000005e16      0x7d0 obj_cooja/mtype595.a(sicslowpan.o)
 .debug_line    0x00000000000065e6      0x2b0 obj_cooja/mtype595.a(neighbor-info.o)
 .debug_line    0x0000000000006896      0x560 obj_cooja/mtype595.a(uip-ds6.o)
 .debug_line    0x0000000000006df6      0x1cb obj_cooja/mtype595.a(collect-view.o)
 .debug_line    0x0000000000006fc1      0x149 obj_cooja/mtype595.a(collect-view-te)
 .debug_line    0x000000000000710a      0x1ce obj_cooja/mtype595.a(simEnvChange.o)
 .debug_line    0x00000000000072d8      0x106 obj_cooja/mtype595.a(cooja_mt.o)
 .debug_line    0x00000000000073de      0x1d2 obj_cooja/mtype595.a(cooja_mtarch.o)
 .debug_line    0x00000000000075b0      0x156 obj_cooja/mtype595.a(rtimer-arch.o)
 .debug_line    0x0000000000007706       0x63 obj_cooja/mtype595.a(watchdog.o)
 .debug_line    0x0000000000007769      0x123 obj_cooja/mtype595.a(beep.o)
 .debug_line    0x000000000000788c      0x1b6 obj_cooja/mtype595.a(button-sensor.o)
 .debug_line    0x0000000000007a42      0x117 obj_cooja/mtype595.a(leds-arch.o)
 .debug_line    0x0000000000007b59      0x138 obj_cooja/mtype595.a(moteid.o)
 .debug_line    0x0000000000007c91      0x17a obj_cooja/mtype595.a(pir-sensor.o)
 .debug_line    0x0000000000007e0b      0x22b obj_cooja/mtype595.a(rs232.o)
 .debug_line    0x0000000000008036      0x17a obj_cooja/mtype595.a(vib-sensor.o)
 .debug_line    0x00000000000081b0      0x115 obj_cooja/mtype595.a(clock.o)
 .debug_line    0x00000000000082c5      0x209 obj_cooja/mtype595.a(log.o)
 .debug_line    0x00000000000084ce      0x193 obj_cooja/mtype595.a(cfs-cooja.o)
 .debug_line    0x0000000000008661      0x319 obj_cooja/mtype595.a(cooja-radio.o)
 .debug_line    0x000000000000897a      0x165 obj_cooja/mtype595.a(sensors.o)
 .debug_line    0x0000000000008adf       0x74 obj_cooja/mtype595.a(leds.o)
 .debug_line    0x0000000000008b53       0x6b obj_cooja/mtype595.a(rimestats.o)
 .debug_line    0x0000000000008bbe      0x1ff obj_cooja/mtype595.a(frame802154.o)
 .debug_line    0x0000000000008dbd      0x320 obj_cooja/mtype595.a(rpl.o)
 .debug_line    0x00000000000090dd       0xb5 obj_cooja/mtype595.a(timer.o)
 .debug_line    0x0000000000009192       0xf7 obj_cooja/mtype595.a(rtimer.o)
 .debug_line    0x0000000000009289      0x2ad obj_cooja/mtype595.a(neighbor-attr.o)

.debug_frame
 *(.debug_frame)

.debug_str      0x0000000000000000     0x6185
 *(.debug_str)
 .debug_str     0x0000000000000000      0x855 udp-sender.co
                                        0xa10 (size before relaxing)
 .debug_str     0x0000000000000855     0x17ab obj_cooja/mtype595.o
                                       0x1b25 (size before relaxing)
 .debug_str     0x0000000000002000      0x46a obj_cooja/collect-common.o
                                        0x71c (size before relaxing)
 .debug_str     0x000000000000246a       0x5a obj_cooja/mtype595.a(rimeaddr.o)
                                        0x186 (size before relaxing)
 .debug_str     0x00000000000024c4      0x3ec obj_cooja/mtype595.a(nullrdc.o)
                                        0x8fd (size before relaxing)
 .debug_str     0x00000000000028b0       0x3a obj_cooja/mtype595.a(mac.o)
                                        0x19e (size before relaxing)
 .debug_str     0x00000000000028ea      0x193 obj_cooja/mtype595.a(framer-802154.o)
                                        0x683 (size before relaxing)
 .debug_str     0x0000000000002a7d      0x161 obj_cooja/mtype595.a(csma.o)
                                        0x8c1 (size before relaxing)
 .debug_str     0x0000000000002bde      0x594 obj_cooja/mtype595.a(rpl-dag.o)
                                        0xf41 (size before relaxing)
 .debug_str     0x0000000000003172      0x18f obj_cooja/mtype595.a(rpl-icmp6.o)
                                       0x11b9 (size before relaxing)
 .debug_str     0x0000000000003301      0x138 obj_cooja/mtype595.a(rpl-timers.o)
                                        0xb9d (size before relaxing)
 .debug_str     0x0000000000003439      0x189 obj_cooja/mtype595.a(rpl-of-fuzzy.o)
                                        0xee7 (size before relaxing)
 .debug_str     0x00000000000035c2       0x72 obj_cooja/mtype595.a(fuzzify.o)
                                        0x11d (size before relaxing)
 .debug_str     0x0000000000003634       0x43 obj_cooja/mtype595.a(qos.o)
                                        0x11b (size before relaxing)
 .debug_str     0x0000000000003677       0x6a obj_cooja/mtype595.a(quality.o)
                                        0x14a (size before relaxing)
 .debug_str     0x00000000000036e1      0x14c obj_cooja/mtype595.a(process.o)
                                        0x49d (size before relaxing)
 .debug_str     0x000000000000382d       0x3d obj_cooja/mtype595.a(autostart.o)
                                        0x1ba (size before relaxing)
 .debug_str     0x000000000000386a       0x9d obj_cooja/mtype595.a(serial-line.o)
                                        0x282 (size before relaxing)
 .debug_str     0x0000000000003907       0x49 obj_cooja/mtype595.a(memb.o)
                                        0x1db (size before relaxing)
 .debug_str     0x0000000000003950       0xab obj_cooja/mtype595.a(list.o)
                                        0x157 (size before relaxing)
 .debug_str     0x00000000000039fb      0x136 obj_cooja/mtype595.a(etimer.o)
                                        0x2eb (size before relaxing)
 .debug_str     0x0000000000003b31       0xb0 obj_cooja/mtype595.a(ctimer.o)
                                        0x2a2 (size before relaxing)
 .debug_str     0x0000000000003be1       0x5f obj_cooja/mtype595.a(energest.o)
                                        0x159 (size before relaxing)
 .debug_str     0x0000000000003c40       0x71 obj_cooja/mtype595.a(stimer.o)
                                        0x17c (size before relaxing)
 .debug_str     0x0000000000003cb1       0x5d obj_cooja/mtype595.a(random.o)
                                        0x152 (size before relaxing)
 .debug_str     0x0000000000003d0e       0x5f obj_cooja/mtype595.a(ringbuf.o)
                                        0x195 (size before relaxing)
 .debug_str     0x0000000000003d6d       0x2b obj_cooja/mtype595.a(netstack.o)
                                        0x292 (size before relaxing)
 .debug_str     0x0000000000003d98       0x4c obj_cooja/mtype595.a(uip-debug.o)
                                        0x5cc (size before relaxing)
 .debug_str     0x0000000000003de4      0x225 obj_cooja/mtype595.a(packetbuf.o)
                                        0xd29 (size before relaxing)
 .debug_str     0x0000000000004009      0x126 obj_cooja/mtype595.a(queuebuf.o)
                                        0xc99 (size before relaxing)
 .debug_str     0x000000000000412f      0x323 obj_cooja/mtype595.a(uip6.o)
                                        0x960 (size before relaxing)
 .debug_str     0x0000000000004452      0x174 obj_cooja/mtype595.a(tcpip.o)
                                        0xbfb (size before relaxing)
 .debug_str     0x00000000000045c6       0x6b obj_cooja/mtype595.a(uip-udp-packet.)
                                        0x41b (size before relaxing)
 .debug_str     0x0000000000004631       0x82 obj_cooja/mtype595.a(uip-icmp6.o)
                                        0x65b (size before relaxing)
 .debug_str     0x00000000000046b3       0xf7 obj_cooja/mtype595.a(uip-nd6.o)
                                        0x7ee (size before relaxing)
 .debug_str     0x00000000000047aa       0xf4 obj_cooja/mtype595.a(uip-packetqueue)
                                        0x72b (size before relaxing)
 .debug_str     0x000000000000489e      0x267 obj_cooja/mtype595.a(sicslowpan.o)
                                       0x1056 (size before relaxing)
 .debug_str     0x0000000000004b05      0x132 obj_cooja/mtype595.a(neighbor-info.o)
                                        0xb6d (size before relaxing)
 .debug_str     0x0000000000004c37      0x3d0 obj_cooja/mtype595.a(uip-ds6.o)
                                        0xd30 (size before relaxing)
 .debug_str     0x0000000000005007      0x19c obj_cooja/mtype595.a(collect-view.o)
                                        0x52e (size before relaxing)
 .debug_str     0x00000000000051a3       0x62 obj_cooja/mtype595.a(collect-view-te)
                                        0x2e8 (size before relaxing)
 .debug_str     0x0000000000005205       0x2b obj_cooja/mtype595.a(simEnvChange.o)
                                        0x435 (size before relaxing)
 .debug_str     0x0000000000005230       0x88 obj_cooja/mtype595.a(cooja_mt.o)
                                        0x24f (size before relaxing)
 .debug_str     0x00000000000052b8      0x104 obj_cooja/mtype595.a(cooja_mtarch.o)
                                        0x4c4 (size before relaxing)
 .debug_str     0x00000000000053bc       0xf0 obj_cooja/mtype595.a(rtimer-arch.o)
                                        0x326 (size before relaxing)
 .debug_str     0x00000000000054ac       0x74 obj_cooja/mtype595.a(watchdog.o)
                                        0x105 (size before relaxing)
 .debug_str     0x0000000000005520       0xc1 obj_cooja/mtype595.a(beep.o)
                                        0x2f3 (size before relaxing)
 .debug_str     0x00000000000055e1       0x6d obj_cooja/mtype595.a(button-sensor.o)
                                        0x341 (size before relaxing)
 .debug_str     0x000000000000564e       0x60 obj_cooja/mtype595.a(leds-arch.o)
                                        0x2cb (size before relaxing)
 .debug_str     0x00000000000056ae       0x44 obj_cooja/mtype595.a(moteid.o)
                                        0x2b6 (size before relaxing)
 .debug_str     0x00000000000056f2       0x52 obj_cooja/mtype595.a(pir-sensor.o)
                                        0x30b (size before relaxing)
 .debug_str     0x0000000000005744       0xd8 obj_cooja/mtype595.a(rs232.o)
                                        0x577 (size before relaxing)
 .debug_str     0x000000000000581c       0x52 obj_cooja/mtype595.a(vib-sensor.o)
                                        0x30b (size before relaxing)
 .debug_str     0x000000000000586e       0x5f obj_cooja/mtype595.a(clock.o)
                                        0x2c6 (size before relaxing)
 .debug_str     0x00000000000058cd       0xe3 obj_cooja/mtype595.a(log.o)
                                        0x587 (size before relaxing)
 .debug_str     0x00000000000059b0      0x10a obj_cooja/mtype595.a(cfs-cooja.o)
                                        0x380 (size before relaxing)
 .debug_str     0x0000000000005aba      0x19a obj_cooja/mtype595.a(cooja-radio.o)
                                        0x90b (size before relaxing)
 .debug_str     0x0000000000005c54       0x90 obj_cooja/mtype595.a(sensors.o)
                                        0x29d (size before relaxing)
 .debug_str     0x0000000000005ce4       0x6f obj_cooja/mtype595.a(leds.o)
                                        0x178 (size before relaxing)
 .debug_str     0x0000000000005d53       0x23 obj_cooja/mtype595.a(rimestats.o)
                                        0x159 (size before relaxing)
 .debug_str     0x0000000000005d76       0xc5 obj_cooja/mtype595.a(frame802154.o)
                                        0x37f (size before relaxing)
 .debug_str     0x0000000000005e3b       0xae obj_cooja/mtype595.a(rpl.o)
                                        0xd8a (size before relaxing)
 .debug_str     0x0000000000005ee9       0x1a obj_cooja/mtype595.a(timer.o)
                                        0x178 (size before relaxing)
 .debug_str     0x0000000000005f03       0x9b obj_cooja/mtype595.a(rtimer.o)
                                        0x258 (size before relaxing)
 .debug_str     0x0000000000005f9e      0x1e7 obj_cooja/mtype595.a(neighbor-attr.o)
                                        0x59d (size before relaxing)

.debug_loc
 *(.debug_loc)

.debug_macinfo
 *(.debug_macinfo)

.debug_weaknames
 *(.debug_weaknames)

.debug_funcnames
 *(.debug_funcnames)

.debug_typenames
 *(.debug_typenames)

.debug_varnames
 *(.debug_varnames)

.debug_pubtypes
 *(.debug_pubtypes)

.debug_ranges   0x0000000000000000      0x180
 *(.debug_ranges)
 .debug_ranges  0x0000000000000000       0x60 obj_cooja/mtype595.a(nullrdc.o)
 .debug_ranges  0x0000000000000060       0x30 obj_cooja/mtype595.a(rpl-icmp6.o)
 .debug_ranges  0x0000000000000090       0x30 obj_cooja/mtype595.a(rpl-timers.o)
 .debug_ranges  0x00000000000000c0       0x30 obj_cooja/mtype595.a(serial-line.o)
 .debug_ranges  0x00000000000000f0       0x30 obj_cooja/mtype595.a(etimer.o)
 .debug_ranges  0x0000000000000120       0x60 obj_cooja/mtype595.a(sicslowpan.o)

.debug_macro
 *(.debug_macro)

.debug_addr
 *(.debug_addr)

.gnu.attributes
 *(.gnu.attributes)

/DISCARD/
 *(.note.GNU-stack)
 *(.gnu_debuglink)
 *(.gnu.lto_*)
OUTPUT(obj_cooja/mtype595.cooja elf64-x86-64)
